
matmul.elf:     file format elf64-littleriscv


Disassembly of section .text:

00000000000100b0 <main>:
    printf("\n");
  }
}

int main()
{
   100b0:	cc002ef3          	csrr	t4,xmlenb
   100b4:	53f9                	li	t2,-2
   100b6:	027e82b3          	mul	t0,t4,t2
   100ba:	7139                	addi	sp,sp,-64
   100bc:	fc06                	sd	ra,56(sp)
   100be:	f822                	sd	s0,48(sp)
   100c0:	f426                	sd	s1,40(sp)
   100c2:	0080                	addi	s0,sp,64
   100c4:	f04a                	sd	s2,32(sp)
   100c6:	ec4e                	sd	s3,24(sp)
   100c8:	e852                	sd	s4,16(sp)
   100ca:	e456                	sd	s5,8(sp)
  printf("===== demo: matmul-intrinsic =====\n");
   100cc:	6575                	lui	a0,0x1d
{
   100ce:	9116                	add	sp,sp,t0
   100d0:	7131                	addi	sp,sp,-192
  printf("===== demo: matmul-intrinsic =====\n");
   100d2:	df050513          	addi	a0,a0,-528 # 1cdf0 <__clzdi2+0x70>
   100d6:	6b8000ef          	jal	ra,1078e <puts>
  /* init data */
  int32_t x[N] = {16, 15, 14, 13, 12, 11, 10, 9, 8, 7, 6, 5, 4, 3, 2, 1};
   100da:	67f5                	lui	a5,0x1d
   100dc:	e5078793          	addi	a5,a5,-432 # 1ce50 <__clzdi2+0xd0>
   100e0:	0087b083          	ld	ra,8(a5)
   100e4:	0107b383          	ld	t2,16(a5)
   100e8:	0187b283          	ld	t0,24(a5)
   100ec:	0307be83          	ld	t4,48(a5)
   100f0:	0207bf83          	ld	t6,32(a5)
   100f4:	0287bf03          	ld	t5,40(a5)
   100f8:	0387be03          	ld	t3,56(a5)
  int32_t y[N] = {1, 2, 3, 4, 5, 6, 7, 8, 9, 10, 11, 12, 13, 14, 15, 16};
   100fc:	0407b303          	ld	t1,64(a5)
  int32_t x[N] = {16, 15, 14, 13, 12, 11, 10, 9, 8, 7, 6, 5, 4, 3, 2, 1};
   10100:	0007b983          	ld	s3,0(a5)
  int32_t y[N] = {1, 2, 3, 4, 5, 6, 7, 8, 9, 10, 11, 12, 13, 14, 15, 16};
   10104:	0487b883          	ld	a7,72(a5)
   10108:	0507b803          	ld	a6,80(a5)
   1010c:	6fa8                	ld	a0,88(a5)
   1010e:	73b0                	ld	a2,96(a5)
   10110:	77b4                	ld	a3,104(a5)
   10112:	7bb8                	ld	a4,112(a5)
   10114:	7fbc                	ld	a5,120(a5)
  int32_t x[N] = {16, 15, 14, 13, 12, 11, 10, 9, 8, 7, 6, 5, 4, 3, 2, 1};
   10116:	f0143423          	sd	ra,-248(s0)
   1011a:	f0743823          	sd	t2,-240(s0)
   1011e:	f0543c23          	sd	t0,-232(s0)
   10122:	f3d43823          	sd	t4,-208(s0)
   10126:	f3f43023          	sd	t6,-224(s0)
   1012a:	f3e43423          	sd	t5,-216(s0)
   1012e:	f3c43c23          	sd	t3,-200(s0)
  int32_t y[N] = {1, 2, 3, 4, 5, 6, 7, 8, 9, 10, 11, 12, 13, 14, 15, 16};
   10132:	f4643023          	sd	t1,-192(s0)
  int32_t x[N] = {16, 15, 14, 13, 12, 11, 10, 9, 8, 7, 6, 5, 4, 3, 2, 1};
   10136:	f1343023          	sd	s3,-256(s0)
  int32_t y[N] = {1, 2, 3, 4, 5, 6, 7, 8, 9, 10, 11, 12, 13, 14, 15, 16};
   1013a:	f5143423          	sd	a7,-184(s0)
   1013e:	f5043823          	sd	a6,-176(s0)
   10142:	f4a43c23          	sd	a0,-168(s0)
   10146:	f6c43023          	sd	a2,-160(s0)
   1014a:	f6d43423          	sd	a3,-152(s0)
   1014e:	f6e43823          	sd	a4,-144(s0)
   10152:	f6f43c23          	sd	a5,-136(s0)
  int32_t z[N] = {0};
   10156:	f8043023          	sd	zero,-128(s0)
{return __builtin_riscv_mst_## SUFFIX(base, stride, value, row, col * sizeof (TYPE));}			\
FUNC_PREFIX												\
void __riscv_th_msst_## SUFFIX (PTRTYPE base, long stride, MTYPE value, mrow_t row, mcol_t col)		\
{return __builtin_riscv_msst_## SUFFIX(base, stride, value, row, col * sizeof (TYPE));}

__MATRIX_ALL_TYPE_ITERATOR(__MATRIX_LOAD_STORE_RELOAD_MCFGK, )
   1015a:	47a1                	li	a5,8
   1015c:	f8043423          	sd	zero,-120(s0)
   10160:	f8043823          	sd	zero,-112(s0)
   10164:	f8043c23          	sd	zero,-104(s0)
   10168:	fa043023          	sd	zero,-96(s0)
   1016c:	fa043423          	sd	zero,-88(s0)
   10170:	fa043823          	sd	zero,-80(s0)
   10174:	fa043c23          	sd	zero,-72(s0)
   10178:	f0040713          	addi	a4,s0,-256
   1017c:	1e08002b          	mcfgmi	zero,2
   10180:	8e07802b          	mcfgk	zero,a5
   10184:	08f7082b          	mldw	m0,a5,(a4)
   10188:	f4040713          	addi	a4,s0,-192
   1018c:	08f708ab          	mldw	m1,a5,(a4)
  /* init matrix value*/
  mint32_t ma = __riscv_th_mld(x, stride, msize_m, msize_k);
  mint32_t mb = __riscv_th_mld(y, stride, msize_m, msize_k);
  mint32_t ans = __riscv_th_mld(z, stride, msize_m, msize_k);

  print_data("Initial value of matrix", ma, mb, ans, msize_m, msize_k);
   10190:	cc0029f3          	csrr	s3,xmlenb
   10194:	f8040713          	addi	a4,s0,-128
   10198:	5af9                	li	s5,-2
   1019a:	08f7092b          	mldw	m2,a5,(a4)
   1019e:	035987b3          	mul	a5,s3,s5
   101a2:	5a7d                	li	s4,-1
   101a4:	cc0024f3          	csrr	s1,xmlenb
   101a8:	04bd                	addi	s1,s1,15
   101aa:	98c1                	andi	s1,s1,-16
   101ac:	890a                	mv	s2,sp
   101ae:	40910133          	sub	sp,sp,s1
   101b2:	858a                	mv	a1,sp
   101b4:	ff040713          	addi	a4,s0,-16
   101b8:	2a05882b          	mst1mw	m0,(a1)
   101bc:	03498833          	mul	a6,s3,s4
   101c0:	f1078793          	addi	a5,a5,-240
   101c4:	40910133          	sub	sp,sp,s1
   101c8:	97ba                	add	a5,a5,a4
   101ca:	2a07882b          	mst1mw	m0,(a5)
   101ce:	860a                	mv	a2,sp
   101d0:	ff040893          	addi	a7,s0,-16
   101d4:	40910133          	sub	sp,sp,s1
   101d8:	2a0608ab          	mst1mw	m1,(a2)
   101dc:	6575                	lui	a0,0x1d
   101de:	f1080813          	addi	a6,a6,-240
   101e2:	9846                	add	a6,a6,a7
   101e4:	868a                	mv	a3,sp
   101e6:	2a0808ab          	mst1mw	m1,(a6)
   101ea:	4789                	li	a5,2
   101ec:	4709                	li	a4,2
   101ee:	e1850513          	addi	a0,a0,-488 # 1ce18 <__clzdi2+0x98>
   101f2:	2a06892b          	mst1mw	m2,(a3)
   101f6:	13e000ef          	jal	ra,10334 <print_data>

  ans = __riscv_th_mmul_mm(ma, mb, msize_m, msize_k);

  print_data("Results of multiplication", ma, mb, ans, msize_m, msize_k);
   101fa:	03598733          	mul	a4,s3,s5
   101fe:	ff040513          	addi	a0,s0,-16
  print_data("Initial value of matrix", ma, mb, ans, msize_m, msize_k);
   10202:	814a                	mv	sp,s2
  print_data("Results of multiplication", ma, mb, ans, msize_m, msize_k);
   10204:	40910133          	sub	sp,sp,s1
   10208:	858a                	mv	a1,sp
   1020a:	40910133          	sub	sp,sp,s1
   1020e:	860a                	mv	a2,sp
   10210:	40910133          	sub	sp,sp,s1
   10214:	034987b3          	mul	a5,s3,s4
   10218:	f1070713          	addi	a4,a4,-240
   1021c:	972a                	add	a4,a4,a0
   1021e:	2807082b          	mld1mw	m0,(a4)
   10222:	ff040713          	addi	a4,s0,-16
   10226:	2a05882b          	mst1mw	m0,(a1)
   1022a:	6575                	lui	a0,0x1d
   1022c:	868a                	mv	a3,sp
MTYPE __riscv_th_## NAME ##_mx_## SUFFIX (MTYPE src1, TYPE src2, mrow_t row, mcol_t col)		\
{return __builtin_riscv_## NAME ##_mx_## SUFFIX(src1, src2, row, col * sizeof (TYPE));}

__MATRIX_SI_USI_DI_UDI_TYPE_ITERATOR(__MATRIX_ALU_RELOAD_MCFGK, madd)
__MATRIX_SI_USI_DI_UDI_TYPE_ITERATOR(__MATRIX_ALU_RELOAD_MCFGK, msub)
__MATRIX_SI_USI_DI_UDI_TYPE_ITERATOR(__MATRIX_ALU_RELOAD_MCFGK, mmul)
   1022e:	1e08002b          	mcfgmi	zero,2
   10232:	e3050513          	addi	a0,a0,-464 # 1ce30 <__clzdi2+0xb0>
   10236:	f1078793          	addi	a5,a5,-240
   1023a:	97ba                	add	a5,a5,a4
   1023c:	280788ab          	mld1mw	m1,(a5)
   10240:	0e20002b          	mcfgki	zero,8
   10244:	2a0608ab          	mst1mw	m1,(a2)
   10248:	8004082b          	mmul.s.mm	m0,m0,m1
   1024c:	4789                	li	a5,2
   1024e:	4709                	li	a4,2
   10250:	2a06882b          	mst1mw	m0,(a3)
   10254:	0e0000ef          	jal	ra,10334 <print_data>
  return 0;
}
   10258:	cc002ef3          	csrr	t4,xmlenb
   1025c:	53f9                	li	t2,-2
   1025e:	027e82b3          	mul	t0,t4,t2
   10262:	cc002ef3          	csrr	t4,xmlenb
   10266:	4389                	li	t2,2
  print_data("Results of multiplication", ma, mb, ans, msize_m, msize_k);
   10268:	814a                	mv	sp,s2
}
   1026a:	4501                	li	a0,0
   1026c:	f0028293          	addi	t0,t0,-256
   10270:	00540133          	add	sp,s0,t0
   10274:	027e82b3          	mul	t0,t4,t2
   10278:	9116                	add	sp,sp,t0
   1027a:	6129                	addi	sp,sp,192
   1027c:	70e2                	ld	ra,56(sp)
   1027e:	7442                	ld	s0,48(sp)
   10280:	74a2                	ld	s1,40(sp)
   10282:	7902                	ld	s2,32(sp)
   10284:	69e2                	ld	s3,24(sp)
   10286:	6a42                	ld	s4,16(sp)
   10288:	6aa2                	ld	s5,8(sp)
   1028a:	6121                	addi	sp,sp,64
   1028c:	8082                	ret

000000000001028e <register_fini>:
   1028e:	00000793          	li	a5,0
   10292:	c799                	beqz	a5,102a0 <register_fini+0x12>
   10294:	00003517          	auipc	a0,0x3
   10298:	9dc50513          	addi	a0,a0,-1572 # 12c70 <__libc_fini_array>
   1029c:	3d40206f          	j	12670 <atexit>
   102a0:	8082                	ret

00000000000102a2 <_start>:
   102a2:	0000f197          	auipc	gp,0xf
   102a6:	47618193          	addi	gp,gp,1142 # 1f718 <__global_pointer$>
   102aa:	72818513          	addi	a0,gp,1832 # 1fe40 <__lock___arc4random_mutex>
   102ae:	00010617          	auipc	a2,0x10
   102b2:	c6a60613          	addi	a2,a2,-918 # 1ff18 <__BSS_END__>
   102b6:	8e09                	sub	a2,a2,a0
   102b8:	4581                	li	a1,0
   102ba:	302000ef          	jal	ra,105bc <memset>
   102be:	00002517          	auipc	a0,0x2
   102c2:	3b250513          	addi	a0,a0,946 # 12670 <atexit>
   102c6:	c519                	beqz	a0,102d4 <_start+0x32>
   102c8:	00003517          	auipc	a0,0x3
   102cc:	9a850513          	addi	a0,a0,-1624 # 12c70 <__libc_fini_array>
   102d0:	3a0020ef          	jal	ra,12670 <atexit>
   102d4:	27c000ef          	jal	ra,10550 <__libc_init_array>
   102d8:	4502                	lw	a0,0(sp)
   102da:	002c                	addi	a1,sp,8
   102dc:	4601                	li	a2,0
   102de:	dd3ff0ef          	jal	ra,100b0 <main>
   102e2:	ac81                	j	10532 <exit>

00000000000102e4 <__do_global_dtors_aux>:
   102e4:	1141                	addi	sp,sp,-16
   102e6:	e022                	sd	s0,0(sp)
   102e8:	7a018413          	addi	s0,gp,1952 # 1feb8 <completed.1>
   102ec:	00044783          	lbu	a5,0(s0)
   102f0:	e406                	sd	ra,8(sp)
   102f2:	ef99                	bnez	a5,10310 <__do_global_dtors_aux+0x2c>
   102f4:	00000793          	li	a5,0
   102f8:	cb89                	beqz	a5,1030a <__do_global_dtors_aux+0x26>
   102fa:	0000f517          	auipc	a0,0xf
   102fe:	9ae50513          	addi	a0,a0,-1618 # 1eca8 <__FRAME_END__>
   10302:	00000097          	auipc	ra,0x0
   10306:	000000e7          	jalr	zero # 0 <main-0x100b0>
   1030a:	4785                	li	a5,1
   1030c:	00f40023          	sb	a5,0(s0)
   10310:	60a2                	ld	ra,8(sp)
   10312:	6402                	ld	s0,0(sp)
   10314:	0141                	addi	sp,sp,16
   10316:	8082                	ret

0000000000010318 <frame_dummy>:
   10318:	00000793          	li	a5,0
   1031c:	cb99                	beqz	a5,10332 <frame_dummy+0x1a>
   1031e:	7a818593          	addi	a1,gp,1960 # 1fec0 <object.0>
   10322:	0000f517          	auipc	a0,0xf
   10326:	98650513          	addi	a0,a0,-1658 # 1eca8 <__FRAME_END__>
   1032a:	00000317          	auipc	t1,0x0
   1032e:	00000067          	jr	zero # 0 <main-0x100b0>
   10332:	8082                	ret

0000000000010334 <print_data>:
{
   10334:	cc002ef3          	csrr	t4,xmlenb
   10338:	53f5                	li	t2,-3
   1033a:	715d                	addi	sp,sp,-80
   1033c:	027e82b3          	mul	t0,t4,t2
   10340:	e0a2                	sd	s0,64(sp)
   10342:	fc26                	sd	s1,56(sp)
   10344:	f84a                	sd	s2,48(sp)
   10346:	cc002473          	csrr	s0,xmlenb
   1034a:	84be                	mv	s1,a5
   1034c:	4909                	li	s2,2
   1034e:	87ae                	mv	a5,a1
   10350:	2807892b          	mld1mw	m2,(a5)
   10354:	e85a                	sd	s6,16(sp)
   10356:	032407b3          	mul	a5,s0,s2
   1035a:	e486                	sd	ra,72(sp)
   1035c:	f44e                	sd	s3,40(sp)
   1035e:	f052                	sd	s4,32(sp)
   10360:	ec56                	sd	s5,24(sp)
   10362:	e45e                	sd	s7,8(sp)
   10364:	9116                	add	sp,sp,t0
   10366:	7131                	addi	sp,sp,-192
   10368:	882a                	mv	a6,a0
  printf("%s:\n", fmt);
   1036a:	6575                	lui	a0,0x1d
{
   1036c:	978a                	add	a5,a5,sp
   1036e:	2a07892b          	mst1mw	m2,(a5)
   10372:	2806882b          	mld1mw	m0,(a3)
   10376:	002407b3          	add	a5,s0,sp
   1037a:	280608ab          	mld1mw	m1,(a2)
  printf("%s:\n", fmt);
   1037e:	85c2                	mv	a1,a6
   10380:	db050513          	addi	a0,a0,-592 # 1cdb0 <__clzdi2+0x30>
{
   10384:	8b3a                	mv	s6,a4
   10386:	2a0788ab          	mst1mw	m1,(a5)
   1038a:	2a01082b          	mst1mw	m0,(sp)
  printf("%s:\n", fmt);
   1038e:	2fa000ef          	jal	ra,10688 <printf>
__MATRIX_ALL_TYPE_ITERATOR(__MATRIX_LOAD_STORE_RELOAD_MCFGK, )
   10392:	032406b3          	mul	a3,s0,s2
   10396:	458d                	li	a1,3
   10398:	00249713          	slli	a4,s1,0x2
   1039c:	47a1                	li	a5,8
   1039e:	9e0b002b          	mcfgm	zero,s6
   103a2:	8e07002b          	mcfgk	zero,a4
   103a6:	00240533          	add	a0,s0,sp
   103aa:	968a                	add	a3,a3,sp
   103ac:	2806892b          	mld1mw	m2,(a3)
   103b0:	02b406b3          	mul	a3,s0,a1
   103b4:	968a                	add	a3,a3,sp
   103b6:	0af6892b          	mstw	m2,a5,(a3)
   103ba:	02b406b3          	mul	a3,s0,a1
   103be:	280508ab          	mld1mw	m1,(a0)
  printf("ma:\t\tmb:\t\tans:\n");
   103c2:	6575                	lui	a0,0x1d
   103c4:	db850513          	addi	a0,a0,-584 # 1cdb8 <__clzdi2+0x38>
   103c8:	04068693          	addi	a3,a3,64
   103cc:	968a                	add	a3,a3,sp
   103ce:	0af688ab          	mstw	m1,a5,(a3)
   103d2:	02b406b3          	mul	a3,s0,a1
   103d6:	2801082b          	mld1mw	m0,(sp)
   103da:	08068693          	addi	a3,a3,128
   103de:	968a                	add	a3,a3,sp
   103e0:	0af6882b          	mstw	m0,a5,(a3)
   103e4:	3aa000ef          	jal	ra,1078e <puts>
  for (row = 0; row < mrow; row++)
   103e8:	100b0363          	beqz	s6,104ee <print_data+0x1ba>
   103ec:	4a01                	li	s4,0
   103ee:	4401                	li	s0,0
   103f0:	6975                	lui	s2,0x1d
        printf("%-2d = %-2d * %-2d  ", tmp_ans[row * mrow + col], tmp_ma[row * mrow + col], tmp_mb[row * mrow + col]);
   103f2:	6af5                	lui	s5,0x1d
        printf("%-2d ", tmp_ans[row * mrow + col]);
   103f4:	69f5                	lui	s3,0x1d
    for (col = 0; col < mcol; col++)
   103f6:	10048e63          	beqz	s1,10512 <print_data+0x1de>
      printf("%-3d ", tmp_ma[row * mrow + col]);
   103fa:	028b0433          	mul	s0,s6,s0
    for (col = 0; col < mcol; col++)
   103fe:	4b81                	li	s7,0
   10400:	4781                	li	a5,0
      printf("%-3d ", tmp_ma[row * mrow + col]);
   10402:	cc0026f3          	csrr	a3,xmlenb
   10406:	470d                	li	a4,3
   10408:	97a2                	add	a5,a5,s0
   1040a:	078a                	slli	a5,a5,0x2
   1040c:	0c078793          	addi	a5,a5,192
   10410:	dc890513          	addi	a0,s2,-568 # 1cdc8 <__clzdi2+0x48>
   10414:	02e68733          	mul	a4,a3,a4
   10418:	970a                	add	a4,a4,sp
   1041a:	97ba                	add	a5,a5,a4
   1041c:	f407a583          	lw	a1,-192(a5)
   10420:	268000ef          	jal	ra,10688 <printf>
    for (col = 0; col < mcol; col++)
   10424:	001b871b          	addiw	a4,s7,1
   10428:	02071793          	slli	a5,a4,0x20
   1042c:	9381                	srli	a5,a5,0x20
   1042e:	8bba                	mv	s7,a4
   10430:	fc97e9e3          	bltu	a5,s1,10402 <print_data+0xce>
    printf("\t");
   10434:	4525                	li	a0,9
   10436:	284000ef          	jal	ra,106ba <putchar>
   1043a:	4b81                	li	s7,0
   1043c:	4781                	li	a5,0
      printf("%-3d ", tmp_mb[row * mrow + col]);
   1043e:	cc0026f3          	csrr	a3,xmlenb
   10442:	470d                	li	a4,3
   10444:	02e68733          	mul	a4,a3,a4
   10448:	97a2                	add	a5,a5,s0
   1044a:	078a                	slli	a5,a5,0x2
   1044c:	0c078793          	addi	a5,a5,192
   10450:	dc890513          	addi	a0,s2,-568
   10454:	970a                	add	a4,a4,sp
   10456:	97ba                	add	a5,a5,a4
   10458:	f807a583          	lw	a1,-128(a5)
   1045c:	22c000ef          	jal	ra,10688 <printf>
    for (col = 0; col < mcol; col++)
   10460:	001b871b          	addiw	a4,s7,1
   10464:	02071793          	slli	a5,a4,0x20
   10468:	9381                	srli	a5,a5,0x20
   1046a:	8bba                	mv	s7,a4
   1046c:	fc97e9e3          	bltu	a5,s1,1043e <print_data+0x10a>
    printf("\t");
   10470:	4525                	li	a0,9
   10472:	248000ef          	jal	ra,106ba <putchar>
   10476:	4b81                	li	s7,0
   10478:	4781                	li	a5,0
   1047a:	a819                	j	10490 <print_data+0x15c>
        printf("%-2d ", tmp_ans[row * mrow + col]);
   1047c:	20c000ef          	jal	ra,10688 <printf>
    for (col = 0; col < mcol; col++)
   10480:	001b871b          	addiw	a4,s7,1
   10484:	02071793          	slli	a5,a4,0x20
   10488:	9381                	srli	a5,a5,0x20
   1048a:	8bba                	mv	s7,a4
   1048c:	0497f863          	bgeu	a5,s1,104dc <print_data+0x1a8>
      if (tmp_ans[0] == 0)
   10490:	cc002673          	csrr	a2,xmlenb
   10494:	468d                	li	a3,3
   10496:	02d60733          	mul	a4,a2,a3
        printf("%-2d ", tmp_ans[row * mrow + col]);
   1049a:	97a2                	add	a5,a5,s0
   1049c:	078a                	slli	a5,a5,0x2
   1049e:	0c078793          	addi	a5,a5,192
   104a2:	dd098513          	addi	a0,s3,-560 # 1cdd0 <__clzdi2+0x50>
   104a6:	02d606b3          	mul	a3,a2,a3
      if (tmp_ans[0] == 0)
   104aa:	08070713          	addi	a4,a4,128
   104ae:	970a                	add	a4,a4,sp
   104b0:	4318                	lw	a4,0(a4)
        printf("%-2d ", tmp_ans[row * mrow + col]);
   104b2:	968a                	add	a3,a3,sp
   104b4:	97b6                	add	a5,a5,a3
   104b6:	fc07a583          	lw	a1,-64(a5)
      if (tmp_ans[0] == 0)
   104ba:	d369                	beqz	a4,1047c <print_data+0x148>
        printf("%-2d = %-2d * %-2d  ", tmp_ans[row * mrow + col], tmp_ma[row * mrow + col], tmp_mb[row * mrow + col]);
   104bc:	f807a683          	lw	a3,-128(a5)
   104c0:	f407a603          	lw	a2,-192(a5)
   104c4:	dd8a8513          	addi	a0,s5,-552 # 1cdd8 <__clzdi2+0x58>
   104c8:	1c0000ef          	jal	ra,10688 <printf>
    for (col = 0; col < mcol; col++)
   104cc:	001b871b          	addiw	a4,s7,1
   104d0:	02071793          	slli	a5,a4,0x20
   104d4:	9381                	srli	a5,a5,0x20
   104d6:	8bba                	mv	s7,a4
   104d8:	fa97ece3          	bltu	a5,s1,10490 <print_data+0x15c>
  for (row = 0; row < mrow; row++)
   104dc:	2a05                	addiw	s4,s4,1
   104de:	020a1413          	slli	s0,s4,0x20
    printf("\n");
   104e2:	4529                	li	a0,10
  for (row = 0; row < mrow; row++)
   104e4:	9001                	srli	s0,s0,0x20
    printf("\n");
   104e6:	1d4000ef          	jal	ra,106ba <putchar>
  for (row = 0; row < mrow; row++)
   104ea:	f16466e3          	bltu	s0,s6,103f6 <print_data+0xc2>
}
   104ee:	cc002ef3          	csrr	t4,xmlenb
   104f2:	438d                	li	t2,3
   104f4:	027e82b3          	mul	t0,t4,t2
   104f8:	9116                	add	sp,sp,t0
   104fa:	6129                	addi	sp,sp,192
   104fc:	60a6                	ld	ra,72(sp)
   104fe:	6406                	ld	s0,64(sp)
   10500:	74e2                	ld	s1,56(sp)
   10502:	7942                	ld	s2,48(sp)
   10504:	79a2                	ld	s3,40(sp)
   10506:	7a02                	ld	s4,32(sp)
   10508:	6ae2                	ld	s5,24(sp)
   1050a:	6b42                	ld	s6,16(sp)
   1050c:	6ba2                	ld	s7,8(sp)
   1050e:	6161                	addi	sp,sp,80
   10510:	8082                	ret
    printf("\t");
   10512:	4525                	li	a0,9
   10514:	1a6000ef          	jal	ra,106ba <putchar>
    printf("\t");
   10518:	4525                	li	a0,9
  for (row = 0; row < mrow; row++)
   1051a:	2a05                	addiw	s4,s4,1
    printf("\t");
   1051c:	19e000ef          	jal	ra,106ba <putchar>
  for (row = 0; row < mrow; row++)
   10520:	020a1413          	slli	s0,s4,0x20
    printf("\n");
   10524:	4529                	li	a0,10
  for (row = 0; row < mrow; row++)
   10526:	9001                	srli	s0,s0,0x20
    printf("\n");
   10528:	192000ef          	jal	ra,106ba <putchar>
  for (row = 0; row < mrow; row++)
   1052c:	ed6465e3          	bltu	s0,s6,103f6 <print_data+0xc2>
   10530:	bf7d                	j	104ee <print_data+0x1ba>

0000000000010532 <exit>:
   10532:	1141                	addi	sp,sp,-16
   10534:	4581                	li	a1,0
   10536:	e022                	sd	s0,0(sp)
   10538:	e406                	sd	ra,8(sp)
   1053a:	842a                	mv	s0,a0
   1053c:	060020ef          	jal	ra,1259c <__call_exitprocs>
   10540:	6f81b503          	ld	a0,1784(gp) # 1fe10 <_global_impure_ptr>
   10544:	6d3c                	ld	a5,88(a0)
   10546:	c391                	beqz	a5,1054a <exit+0x18>
   10548:	9782                	jalr	a5
   1054a:	8522                	mv	a0,s0
   1054c:	24a0b0ef          	jal	ra,1b796 <_exit>

0000000000010550 <__libc_init_array>:
   10550:	1101                	addi	sp,sp,-32
   10552:	e822                	sd	s0,16(sp)
   10554:	e04a                	sd	s2,0(sp)
   10556:	0000e417          	auipc	s0,0xe
   1055a:	75640413          	addi	s0,s0,1878 # 1ecac <__preinit_array_end>
   1055e:	0000e917          	auipc	s2,0xe
   10562:	74e90913          	addi	s2,s2,1870 # 1ecac <__preinit_array_end>
   10566:	40890933          	sub	s2,s2,s0
   1056a:	ec06                	sd	ra,24(sp)
   1056c:	e426                	sd	s1,8(sp)
   1056e:	40395913          	srai	s2,s2,0x3
   10572:	00090963          	beqz	s2,10584 <__libc_init_array+0x34>
   10576:	4481                	li	s1,0
   10578:	601c                	ld	a5,0(s0)
   1057a:	0485                	addi	s1,s1,1
   1057c:	0421                	addi	s0,s0,8
   1057e:	9782                	jalr	a5
   10580:	fe991ce3          	bne	s2,s1,10578 <__libc_init_array+0x28>
   10584:	0000e417          	auipc	s0,0xe
   10588:	72c40413          	addi	s0,s0,1836 # 1ecb0 <__init_array_start>
   1058c:	0000e917          	auipc	s2,0xe
   10590:	73490913          	addi	s2,s2,1844 # 1ecc0 <__do_global_dtors_aux_fini_array_entry>
   10594:	40890933          	sub	s2,s2,s0
   10598:	40395913          	srai	s2,s2,0x3
   1059c:	00090963          	beqz	s2,105ae <__libc_init_array+0x5e>
   105a0:	4481                	li	s1,0
   105a2:	601c                	ld	a5,0(s0)
   105a4:	0485                	addi	s1,s1,1
   105a6:	0421                	addi	s0,s0,8
   105a8:	9782                	jalr	a5
   105aa:	fe991ce3          	bne	s2,s1,105a2 <__libc_init_array+0x52>
   105ae:	60e2                	ld	ra,24(sp)
   105b0:	6442                	ld	s0,16(sp)
   105b2:	64a2                	ld	s1,8(sp)
   105b4:	6902                	ld	s2,0(sp)
   105b6:	6105                	addi	sp,sp,32
   105b8:	8082                	ret
	...

00000000000105bc <memset>:
   105bc:	433d                	li	t1,15
   105be:	872a                	mv	a4,a0
   105c0:	02c37163          	bgeu	t1,a2,105e2 <memset+0x26>
   105c4:	00f77793          	andi	a5,a4,15
   105c8:	e3c1                	bnez	a5,10648 <memset+0x8c>
   105ca:	e1bd                	bnez	a1,10630 <memset+0x74>
   105cc:	ff067693          	andi	a3,a2,-16
   105d0:	8a3d                	andi	a2,a2,15
   105d2:	96ba                	add	a3,a3,a4
   105d4:	e30c                	sd	a1,0(a4)
   105d6:	e70c                	sd	a1,8(a4)
   105d8:	0741                	addi	a4,a4,16
   105da:	fed76de3          	bltu	a4,a3,105d4 <memset+0x18>
   105de:	e211                	bnez	a2,105e2 <memset+0x26>
   105e0:	8082                	ret
   105e2:	40c306b3          	sub	a3,t1,a2
   105e6:	068a                	slli	a3,a3,0x2
   105e8:	00000297          	auipc	t0,0x0
   105ec:	9696                	add	a3,a3,t0
   105ee:	00a68067          	jr	10(a3)
   105f2:	00b70723          	sb	a1,14(a4)
   105f6:	00b706a3          	sb	a1,13(a4)
   105fa:	00b70623          	sb	a1,12(a4)
   105fe:	00b705a3          	sb	a1,11(a4)
   10602:	00b70523          	sb	a1,10(a4)
   10606:	00b704a3          	sb	a1,9(a4)
   1060a:	00b70423          	sb	a1,8(a4)
   1060e:	00b703a3          	sb	a1,7(a4)
   10612:	00b70323          	sb	a1,6(a4)
   10616:	00b702a3          	sb	a1,5(a4)
   1061a:	00b70223          	sb	a1,4(a4)
   1061e:	00b701a3          	sb	a1,3(a4)
   10622:	00b70123          	sb	a1,2(a4)
   10626:	00b700a3          	sb	a1,1(a4)
   1062a:	00b70023          	sb	a1,0(a4)
   1062e:	8082                	ret
   10630:	0ff5f593          	zext.b	a1,a1
   10634:	00859693          	slli	a3,a1,0x8
   10638:	8dd5                	or	a1,a1,a3
   1063a:	01059693          	slli	a3,a1,0x10
   1063e:	8dd5                	or	a1,a1,a3
   10640:	02059693          	slli	a3,a1,0x20
   10644:	8dd5                	or	a1,a1,a3
   10646:	b759                	j	105cc <memset+0x10>
   10648:	00279693          	slli	a3,a5,0x2
   1064c:	00000297          	auipc	t0,0x0
   10650:	9696                	add	a3,a3,t0
   10652:	8286                	mv	t0,ra
   10654:	fa2680e7          	jalr	-94(a3)
   10658:	8096                	mv	ra,t0
   1065a:	17c1                	addi	a5,a5,-16
   1065c:	8f1d                	sub	a4,a4,a5
   1065e:	963e                	add	a2,a2,a5
   10660:	f8c371e3          	bgeu	t1,a2,105e2 <memset+0x26>
   10664:	b79d                	j	105ca <memset+0xe>

0000000000010666 <_printf_r>:
   10666:	715d                	addi	sp,sp,-80
   10668:	f032                	sd	a2,32(sp)
   1066a:	f436                	sd	a3,40(sp)
   1066c:	f83a                	sd	a4,48(sp)
   1066e:	fc3e                	sd	a5,56(sp)
   10670:	e0c2                	sd	a6,64(sp)
   10672:	e4c6                	sd	a7,72(sp)
   10674:	862e                	mv	a2,a1
   10676:	690c                	ld	a1,16(a0)
   10678:	1014                	addi	a3,sp,32
   1067a:	ec06                	sd	ra,24(sp)
   1067c:	e436                	sd	a3,8(sp)
   1067e:	1b0000ef          	jal	ra,1082e <_vfprintf_r>
   10682:	60e2                	ld	ra,24(sp)
   10684:	6161                	addi	sp,sp,80
   10686:	8082                	ret

0000000000010688 <printf>:
   10688:	7081b303          	ld	t1,1800(gp) # 1fe20 <_impure_ptr>
   1068c:	711d                	addi	sp,sp,-96
   1068e:	f832                	sd	a2,48(sp)
   10690:	fc36                	sd	a3,56(sp)
   10692:	f42e                	sd	a1,40(sp)
   10694:	e0ba                	sd	a4,64(sp)
   10696:	e4be                	sd	a5,72(sp)
   10698:	e8c2                	sd	a6,80(sp)
   1069a:	ecc6                	sd	a7,88(sp)
   1069c:	01033583          	ld	a1,16(t1) # 1033a <print_data+0x6>
   106a0:	1034                	addi	a3,sp,40
   106a2:	862a                	mv	a2,a0
   106a4:	851a                	mv	a0,t1
   106a6:	ec06                	sd	ra,24(sp)
   106a8:	e436                	sd	a3,8(sp)
   106aa:	184000ef          	jal	ra,1082e <_vfprintf_r>
   106ae:	60e2                	ld	ra,24(sp)
   106b0:	6125                	addi	sp,sp,96
   106b2:	8082                	ret

00000000000106b4 <_putchar_r>:
   106b4:	6910                	ld	a2,16(a0)
   106b6:	5500606f          	j	16c06 <_putc_r>

00000000000106ba <putchar>:
   106ba:	7081b783          	ld	a5,1800(gp) # 1fe20 <_impure_ptr>
   106be:	85aa                	mv	a1,a0
   106c0:	6b90                	ld	a2,16(a5)
   106c2:	853e                	mv	a0,a5
   106c4:	5420606f          	j	16c06 <_putc_r>

00000000000106c8 <_puts_r>:
   106c8:	711d                	addi	sp,sp,-96
   106ca:	e4a6                	sd	s1,72(sp)
   106cc:	84aa                	mv	s1,a0
   106ce:	852e                	mv	a0,a1
   106d0:	e8a2                	sd	s0,80(sp)
   106d2:	ec86                	sd	ra,88(sp)
   106d4:	842e                	mv	s0,a1
   106d6:	0c2000ef          	jal	ra,10798 <strlen>
   106da:	00150713          	addi	a4,a0,1
   106de:	0000c697          	auipc	a3,0xc
   106e2:	7f268693          	addi	a3,a3,2034 # 1ced0 <__clzdi2+0x150>
   106e6:	ec3a                	sd	a4,24(sp)
   106e8:	48bc                	lw	a5,80(s1)
   106ea:	1018                	addi	a4,sp,32
   106ec:	f836                	sd	a3,48(sp)
   106ee:	e43a                	sd	a4,8(sp)
   106f0:	4685                	li	a3,1
   106f2:	4709                	li	a4,2
   106f4:	f022                	sd	s0,32(sp)
   106f6:	f42a                	sd	a0,40(sp)
   106f8:	fc36                	sd	a3,56(sp)
   106fa:	c83a                	sw	a4,16(sp)
   106fc:	6880                	ld	s0,16(s1)
   106fe:	c3a5                	beqz	a5,1075e <_puts_r+0x96>
   10700:	0b042703          	lw	a4,176(s0)
   10704:	01041683          	lh	a3,16(s0)
   10708:	8b05                	andi	a4,a4,1
   1070a:	03069793          	slli	a5,a3,0x30
   1070e:	93c1                	srli	a5,a5,0x30
   10710:	e701                	bnez	a4,10718 <_puts_r+0x50>
   10712:	2007f713          	andi	a4,a5,512
   10716:	c32d                	beqz	a4,10778 <_puts_r+0xb0>
   10718:	6709                	lui	a4,0x2
   1071a:	8ff9                	and	a5,a5,a4
   1071c:	eb99                	bnez	a5,10732 <_puts_r+0x6a>
   1071e:	0b042783          	lw	a5,176(s0)
   10722:	8ed9                	or	a3,a3,a4
   10724:	7779                	lui	a4,0xffffe
   10726:	177d                	addi	a4,a4,-1
   10728:	8ff9                	and	a5,a5,a4
   1072a:	00d41823          	sh	a3,16(s0)
   1072e:	0af42823          	sw	a5,176(s0)
   10732:	0030                	addi	a2,sp,8
   10734:	85a2                	mv	a1,s0
   10736:	8526                	mv	a0,s1
   10738:	097020ef          	jal	ra,12fce <__sfvwrite_r>
   1073c:	e539                	bnez	a0,1078a <_puts_r+0xc2>
   1073e:	44a9                	li	s1,10
   10740:	0b042783          	lw	a5,176(s0)
   10744:	8b85                	andi	a5,a5,1
   10746:	e791                	bnez	a5,10752 <_puts_r+0x8a>
   10748:	01045783          	lhu	a5,16(s0)
   1074c:	2007f793          	andi	a5,a5,512
   10750:	cb99                	beqz	a5,10766 <_puts_r+0x9e>
   10752:	60e6                	ld	ra,88(sp)
   10754:	6446                	ld	s0,80(sp)
   10756:	8526                	mv	a0,s1
   10758:	64a6                	ld	s1,72(sp)
   1075a:	6125                	addi	sp,sp,96
   1075c:	8082                	ret
   1075e:	8526                	mv	a0,s1
   10760:	26e020ef          	jal	ra,129ce <__sinit>
   10764:	bf71                	j	10700 <_puts_r+0x38>
   10766:	7048                	ld	a0,160(s0)
   10768:	5ef040ef          	jal	ra,15556 <__retarget_lock_release_recursive>
   1076c:	60e6                	ld	ra,88(sp)
   1076e:	6446                	ld	s0,80(sp)
   10770:	8526                	mv	a0,s1
   10772:	64a6                	ld	s1,72(sp)
   10774:	6125                	addi	sp,sp,96
   10776:	8082                	ret
   10778:	7048                	ld	a0,160(s0)
   1077a:	5d1040ef          	jal	ra,1554a <__retarget_lock_acquire_recursive>
   1077e:	01041683          	lh	a3,16(s0)
   10782:	03069793          	slli	a5,a3,0x30
   10786:	93c1                	srli	a5,a5,0x30
   10788:	bf41                	j	10718 <_puts_r+0x50>
   1078a:	54fd                	li	s1,-1
   1078c:	bf55                	j	10740 <_puts_r+0x78>

000000000001078e <puts>:
   1078e:	85aa                	mv	a1,a0
   10790:	7081b503          	ld	a0,1800(gp) # 1fe20 <_impure_ptr>
   10794:	bf15                	j	106c8 <_puts_r>
	...

0000000000010798 <strlen>:
   10798:	00757793          	andi	a5,a0,7
   1079c:	872a                	mv	a4,a0
   1079e:	ebb9                	bnez	a5,107f4 <strlen+0x5c>
   107a0:	0000f697          	auipc	a3,0xf
   107a4:	6406b683          	ld	a3,1600(a3) # 1fde0 <__SDATA_BEGIN__>
   107a8:	55fd                	li	a1,-1
   107aa:	6310                	ld	a2,0(a4)
   107ac:	0721                	addi	a4,a4,8
   107ae:	00d677b3          	and	a5,a2,a3
   107b2:	97b6                	add	a5,a5,a3
   107b4:	8fd1                	or	a5,a5,a2
   107b6:	8fd5                	or	a5,a5,a3
   107b8:	feb789e3          	beq	a5,a1,107aa <strlen+0x12>
   107bc:	ff874683          	lbu	a3,-8(a4) # ffffffffffffdff8 <__BSS_END__+0xfffffffffffde0e0>
   107c0:	40a707b3          	sub	a5,a4,a0
   107c4:	c6a9                	beqz	a3,1080e <strlen+0x76>
   107c6:	ff974683          	lbu	a3,-7(a4)
   107ca:	ce9d                	beqz	a3,10808 <strlen+0x70>
   107cc:	ffa74683          	lbu	a3,-6(a4)
   107d0:	c6a9                	beqz	a3,1081a <strlen+0x82>
   107d2:	ffb74683          	lbu	a3,-5(a4)
   107d6:	ce9d                	beqz	a3,10814 <strlen+0x7c>
   107d8:	ffc74683          	lbu	a3,-4(a4)
   107dc:	ffd74603          	lbu	a2,-3(a4)
   107e0:	ffe74503          	lbu	a0,-2(a4)
   107e4:	ce95                	beqz	a3,10820 <strlen+0x88>
   107e6:	c221                	beqz	a2,10826 <strlen+0x8e>
   107e8:	00a03533          	snez	a0,a0
   107ec:	953e                	add	a0,a0,a5
   107ee:	1579                	addi	a0,a0,-2
   107f0:	8082                	ret
   107f2:	d6dd                	beqz	a3,107a0 <strlen+0x8>
   107f4:	00074783          	lbu	a5,0(a4)
   107f8:	0705                	addi	a4,a4,1
   107fa:	00777693          	andi	a3,a4,7
   107fe:	fbf5                	bnez	a5,107f2 <strlen+0x5a>
   10800:	8f09                	sub	a4,a4,a0
   10802:	fff70513          	addi	a0,a4,-1
   10806:	8082                	ret
   10808:	ff978513          	addi	a0,a5,-7
   1080c:	8082                	ret
   1080e:	ff878513          	addi	a0,a5,-8
   10812:	8082                	ret
   10814:	ffb78513          	addi	a0,a5,-5
   10818:	8082                	ret
   1081a:	ffa78513          	addi	a0,a5,-6
   1081e:	8082                	ret
   10820:	ffc78513          	addi	a0,a5,-4
   10824:	8082                	ret
   10826:	ffd78513          	addi	a0,a5,-3
   1082a:	8082                	ret
	...

000000000001082e <_vfprintf_r>:
   1082e:	d8010113          	addi	sp,sp,-640
   10832:	26113c23          	sd	ra,632(sp)
   10836:	27213023          	sd	s2,608(sp)
   1083a:	25513423          	sd	s5,584(sp)
   1083e:	23a13023          	sd	s10,544(sp)
   10842:	892e                	mv	s2,a1
   10844:	8d32                	mv	s10,a2
   10846:	e836                	sd	a3,16(sp)
   10848:	26813823          	sd	s0,624(sp)
   1084c:	26913423          	sd	s1,616(sp)
   10850:	25313c23          	sd	s3,600(sp)
   10854:	25413823          	sd	s4,592(sp)
   10858:	25613023          	sd	s6,576(sp)
   1085c:	23713c23          	sd	s7,568(sp)
   10860:	23813823          	sd	s8,560(sp)
   10864:	23913423          	sd	s9,552(sp)
   10868:	21b13c23          	sd	s11,536(sp)
   1086c:	8aaa                	mv	s5,a0
   1086e:	4c7040ef          	jal	ra,15534 <_localeconv_r>
   10872:	611c                	ld	a5,0(a0)
   10874:	853e                	mv	a0,a5
   10876:	fcbe                	sd	a5,120(sp)
   10878:	f21ff0ef          	jal	ra,10798 <strlen>
   1087c:	f8aa                	sd	a0,112(sp)
   1087e:	e202                	sd	zero,256(sp)
   10880:	e602                	sd	zero,264(sp)
   10882:	000a8663          	beqz	s5,1088e <_vfprintf_r+0x60>
   10886:	050aa783          	lw	a5,80(s5)
   1088a:	60078763          	beqz	a5,10e98 <_vfprintf_r+0x66a>
   1088e:	0b092683          	lw	a3,176(s2)
   10892:	01091703          	lh	a4,16(s2)
   10896:	8a85                	andi	a3,a3,1
   10898:	03071793          	slli	a5,a4,0x30
   1089c:	93c1                	srli	a5,a5,0x30
   1089e:	e689                	bnez	a3,108a8 <_vfprintf_r+0x7a>
   108a0:	2007f693          	andi	a3,a5,512
   108a4:	68068ee3          	beqz	a3,11740 <_vfprintf_r+0xf12>
   108a8:	6689                	lui	a3,0x2
   108aa:	00d7f633          	and	a2,a5,a3
   108ae:	e215                	bnez	a2,108d2 <_vfprintf_r+0xa4>
   108b0:	0b092603          	lw	a2,176(s2)
   108b4:	00d767b3          	or	a5,a4,a3
   108b8:	0107979b          	slliw	a5,a5,0x10
   108bc:	7779                	lui	a4,0xffffe
   108be:	4107d79b          	sraiw	a5,a5,0x10
   108c2:	177d                	addi	a4,a4,-1
   108c4:	8f71                	and	a4,a4,a2
   108c6:	00f91823          	sh	a5,16(s2)
   108ca:	17c2                	slli	a5,a5,0x30
   108cc:	0ae92823          	sw	a4,176(s2)
   108d0:	93c1                	srli	a5,a5,0x30
   108d2:	0087f713          	andi	a4,a5,8
   108d6:	26070763          	beqz	a4,10b44 <_vfprintf_r+0x316>
   108da:	01893703          	ld	a4,24(s2)
   108de:	26070363          	beqz	a4,10b44 <_vfprintf_r+0x316>
   108e2:	01a7f713          	andi	a4,a5,26
   108e6:	46a9                	li	a3,10
   108e8:	26d70c63          	beq	a4,a3,10b60 <_vfprintf_r+0x332>
   108ec:	000d4783          	lbu	a5,0(s10)
   108f0:	19010b93          	addi	s7,sp,400
   108f4:	ea5e                	sd	s7,272(sp)
   108f6:	f202                	sd	zero,288(sp)
   108f8:	10012c23          	sw	zero,280(sp)
   108fc:	f002                	sd	zero,32(sp)
   108fe:	f402                	sd	zero,40(sp)
   10900:	e102                	sd	zero,128(sp)
   10902:	f482                	sd	zero,104(sp)
   10904:	e502                	sd	zero,136(sp)
   10906:	e902                	sd	zero,144(sp)
   10908:	e002                	sd	zero,0(sp)
   1090a:	835e                	mv	t1,s7
   1090c:	4dc1                	li	s11,16
   1090e:	0000c997          	auipc	s3,0xc
   10912:	7aa98993          	addi	s3,s3,1962 # 1d0b8 <zeroes.0>
   10916:	1c078163          	beqz	a5,10ad8 <_vfprintf_r+0x2aa>
   1091a:	846a                	mv	s0,s10
   1091c:	02500713          	li	a4,37
   10920:	26e78563          	beq	a5,a4,10b8a <_vfprintf_r+0x35c>
   10924:	00144783          	lbu	a5,1(s0)
   10928:	0405                	addi	s0,s0,1
   1092a:	fbfd                	bnez	a5,10920 <_vfprintf_r+0xf2>
   1092c:	41a404bb          	subw	s1,s0,s10
   10930:	1a048463          	beqz	s1,10ad8 <_vfprintf_r+0x2aa>
   10934:	7712                	ld	a4,288(sp)
   10936:	11812783          	lw	a5,280(sp)
   1093a:	01a33023          	sd	s10,0(t1)
   1093e:	9726                	add	a4,a4,s1
   10940:	2785                	addiw	a5,a5,1
   10942:	00933423          	sd	s1,8(t1)
   10946:	f23a                	sd	a4,288(sp)
   10948:	10f12c23          	sw	a5,280(sp)
   1094c:	873e                	mv	a4,a5
   1094e:	479d                	li	a5,7
   10950:	0341                	addi	t1,t1,16
   10952:	24e7c363          	blt	a5,a4,10b98 <_vfprintf_r+0x36a>
   10956:	6702                	ld	a4,0(sp)
   10958:	00044783          	lbu	a5,0(s0)
   1095c:	9f25                	addw	a4,a4,s1
   1095e:	e03a                	sd	a4,0(sp)
   10960:	16078c63          	beqz	a5,10ad8 <_vfprintf_r+0x2aa>
   10964:	00144e83          	lbu	t4,1(s0)
   10968:	0c010fa3          	sb	zero,223(sp)
   1096c:	0405                	addi	s0,s0,1
   1096e:	5f7d                	li	t5,-1
   10970:	4b01                	li	s6,0
   10972:	4481                	li	s1,0
   10974:	4a25                	li	s4,9
   10976:	02a00c13          	li	s8,42
   1097a:	0405                	addi	s0,s0,1
   1097c:	8cf6                	mv	s9,t4
   1097e:	05a00613          	li	a2,90
   10982:	fe0c879b          	addiw	a5,s9,-32
   10986:	873e                	mv	a4,a5
   10988:	04e66763          	bltu	a2,a4,109d6 <_vfprintf_r+0x1a8>
   1098c:	02079713          	slli	a4,a5,0x20
   10990:	01e75793          	srli	a5,a4,0x1e
   10994:	0000c717          	auipc	a4,0xc
   10998:	5a470713          	addi	a4,a4,1444 # 1cf38 <__clzdi2+0x1b8>
   1099c:	97ba                	add	a5,a5,a4
   1099e:	439c                	lw	a5,0(a5)
   109a0:	97ba                	add	a5,a5,a4
   109a2:	8782                	jr	a5
   109a4:	4b01                	li	s6,0
   109a6:	00044703          	lbu	a4,0(s0)
   109aa:	002b179b          	slliw	a5,s6,0x2
   109ae:	01678b3b          	addw	s6,a5,s6
   109b2:	fd0c8e9b          	addiw	t4,s9,-48
   109b6:	001b1b1b          	slliw	s6,s6,0x1
   109ba:	fd07079b          	addiw	a5,a4,-48
   109be:	0405                	addi	s0,s0,1
   109c0:	016e8b3b          	addw	s6,t4,s6
   109c4:	00070c9b          	sext.w	s9,a4
   109c8:	fcfa7fe3          	bgeu	s4,a5,109a6 <_vfprintf_r+0x178>
   109cc:	fe0c879b          	addiw	a5,s9,-32
   109d0:	873e                	mv	a4,a5
   109d2:	fae67de3          	bgeu	a2,a4,1098c <_vfprintf_r+0x15e>
   109d6:	100c8163          	beqz	s9,10ad8 <_vfprintf_r+0x2aa>
   109da:	13910423          	sb	s9,296(sp)
   109de:	0c010fa3          	sb	zero,223(sp)
   109e2:	4a05                	li	s4,1
   109e4:	4c05                	li	s8,1
   109e6:	12810d13          	addi	s10,sp,296
   109ea:	ec02                	sd	zero,24(sp)
   109ec:	4f01                	li	t5,0
   109ee:	e882                	sd	zero,80(sp)
   109f0:	f082                	sd	zero,96(sp)
   109f2:	ec82                	sd	zero,88(sp)
   109f4:	0024f293          	andi	t0,s1,2
   109f8:	00028363          	beqz	t0,109fe <_vfprintf_r+0x1d0>
   109fc:	2a09                	addiw	s4,s4,2
   109fe:	0844ff93          	andi	t6,s1,132
   10a02:	7792                	ld	a5,288(sp)
   10a04:	000f9663          	bnez	t6,10a10 <_vfprintf_r+0x1e2>
   10a08:	414b06bb          	subw	a3,s6,s4
   10a0c:	1cd048e3          	bgtz	a3,113dc <_vfprintf_r+0xbae>
   10a10:	0df14703          	lbu	a4,223(sp)
   10a14:	c705                	beqz	a4,10a3c <_vfprintf_r+0x20e>
   10a16:	11812703          	lw	a4,280(sp)
   10a1a:	0df10693          	addi	a3,sp,223
   10a1e:	00d33023          	sd	a3,0(t1)
   10a22:	2705                	addiw	a4,a4,1
   10a24:	4685                	li	a3,1
   10a26:	0785                	addi	a5,a5,1
   10a28:	00d33423          	sd	a3,8(t1)
   10a2c:	10e12c23          	sw	a4,280(sp)
   10a30:	86ba                	mv	a3,a4
   10a32:	f23e                	sd	a5,288(sp)
   10a34:	471d                	li	a4,7
   10a36:	0341                	addi	t1,t1,16
   10a38:	36d74763          	blt	a4,a3,10da6 <_vfprintf_r+0x578>
   10a3c:	02028463          	beqz	t0,10a64 <_vfprintf_r+0x236>
   10a40:	11812703          	lw	a4,280(sp)
   10a44:	1194                	addi	a3,sp,224
   10a46:	00d33023          	sd	a3,0(t1)
   10a4a:	2705                	addiw	a4,a4,1
   10a4c:	4689                	li	a3,2
   10a4e:	0789                	addi	a5,a5,2
   10a50:	00d33423          	sd	a3,8(t1)
   10a54:	10e12c23          	sw	a4,280(sp)
   10a58:	86ba                	mv	a3,a4
   10a5a:	f23e                	sd	a5,288(sp)
   10a5c:	471d                	li	a4,7
   10a5e:	0341                	addi	t1,t1,16
   10a60:	22d74be3          	blt	a4,a3,11496 <_vfprintf_r+0xc68>
   10a64:	08000713          	li	a4,128
   10a68:	04ef82e3          	beq	t6,a4,112ac <_vfprintf_r+0xa7e>
   10a6c:	418f0f3b          	subw	t5,t5,s8
   10a70:	0de043e3          	bgtz	t5,11336 <_vfprintf_r+0xb08>
   10a74:	1004f713          	andi	a4,s1,256
   10a78:	76071963          	bnez	a4,111ea <_vfprintf_r+0x9bc>
   10a7c:	11812703          	lw	a4,280(sp)
   10a80:	97e2                	add	a5,a5,s8
   10a82:	01a33023          	sd	s10,0(t1)
   10a86:	0017069b          	addiw	a3,a4,1
   10a8a:	8736                	mv	a4,a3
   10a8c:	01833423          	sd	s8,8(t1)
   10a90:	10e12c23          	sw	a4,280(sp)
   10a94:	f23e                	sd	a5,288(sp)
   10a96:	471d                	li	a4,7
   10a98:	3cd74b63          	blt	a4,a3,10e6e <_vfprintf_r+0x640>
   10a9c:	0341                	addi	t1,t1,16
   10a9e:	8891                	andi	s1,s1,4
   10aa0:	c489                	beqz	s1,10aaa <_vfprintf_r+0x27c>
   10aa2:	414b04bb          	subw	s1,s6,s4
   10aa6:	209046e3          	bgtz	s1,114b2 <_vfprintf_r+0xc84>
   10aaa:	875a                	mv	a4,s6
   10aac:	014b5363          	bge	s6,s4,10ab2 <_vfprintf_r+0x284>
   10ab0:	8752                	mv	a4,s4
   10ab2:	6682                	ld	a3,0(sp)
   10ab4:	9f35                	addw	a4,a4,a3
   10ab6:	e03a                	sd	a4,0(sp)
   10ab8:	0e079ce3          	bnez	a5,113b0 <_vfprintf_r+0xb82>
   10abc:	67e2                	ld	a5,24(sp)
   10abe:	10012c23          	sw	zero,280(sp)
   10ac2:	c789                	beqz	a5,10acc <_vfprintf_r+0x29e>
   10ac4:	65e2                	ld	a1,24(sp)
   10ac6:	8556                	mv	a0,s5
   10ac8:	2b6020ef          	jal	ra,12d7e <_free_r>
   10acc:	835e                	mv	t1,s7
   10ace:	8d22                	mv	s10,s0
   10ad0:	000d4783          	lbu	a5,0(s10)
   10ad4:	e40793e3          	bnez	a5,1091a <_vfprintf_r+0xec>
   10ad8:	7792                	ld	a5,288(sp)
   10ada:	c399                	beqz	a5,10ae0 <_vfprintf_r+0x2b2>
   10adc:	1020106f          	j	11bde <_vfprintf_r+0x13b0>
   10ae0:	10012c23          	sw	zero,280(sp)
   10ae4:	0b092703          	lw	a4,176(s2)
   10ae8:	01095783          	lhu	a5,16(s2)
   10aec:	8b05                	andi	a4,a4,1
   10aee:	38070a63          	beqz	a4,10e82 <_vfprintf_r+0x654>
   10af2:	0407f793          	andi	a5,a5,64
   10af6:	c399                	beqz	a5,10afc <_vfprintf_r+0x2ce>
   10af8:	5f20106f          	j	120ea <_vfprintf_r+0x18bc>
   10afc:	27813083          	ld	ra,632(sp)
   10b00:	27013403          	ld	s0,624(sp)
   10b04:	6502                	ld	a0,0(sp)
   10b06:	26813483          	ld	s1,616(sp)
   10b0a:	26013903          	ld	s2,608(sp)
   10b0e:	25813983          	ld	s3,600(sp)
   10b12:	25013a03          	ld	s4,592(sp)
   10b16:	24813a83          	ld	s5,584(sp)
   10b1a:	24013b03          	ld	s6,576(sp)
   10b1e:	23813b83          	ld	s7,568(sp)
   10b22:	23013c03          	ld	s8,560(sp)
   10b26:	22813c83          	ld	s9,552(sp)
   10b2a:	22013d03          	ld	s10,544(sp)
   10b2e:	21813d83          	ld	s11,536(sp)
   10b32:	28010113          	addi	sp,sp,640
   10b36:	8082                	ret
   10b38:	0104e493          	ori	s1,s1,16
   10b3c:	00044e83          	lbu	t4,0(s0)
   10b40:	2481                	sext.w	s1,s1
   10b42:	bd25                	j	1097a <_vfprintf_r+0x14c>
   10b44:	85ca                	mv	a1,s2
   10b46:	8556                	mv	a0,s5
   10b48:	15d010ef          	jal	ra,124a4 <__swsetup_r>
   10b4c:	c119                	beqz	a0,10b52 <_vfprintf_r+0x324>
   10b4e:	0350106f          	j	12382 <_vfprintf_r+0x1b54>
   10b52:	01095783          	lhu	a5,16(s2)
   10b56:	46a9                	li	a3,10
   10b58:	01a7f713          	andi	a4,a5,26
   10b5c:	d8d718e3          	bne	a4,a3,108ec <_vfprintf_r+0xbe>
   10b60:	01291703          	lh	a4,18(s2)
   10b64:	d80744e3          	bltz	a4,108ec <_vfprintf_r+0xbe>
   10b68:	0b092703          	lw	a4,176(s2)
   10b6c:	8b05                	andi	a4,a4,1
   10b6e:	e711                	bnez	a4,10b7a <_vfprintf_r+0x34c>
   10b70:	2007f793          	andi	a5,a5,512
   10b74:	e399                	bnez	a5,10b7a <_vfprintf_r+0x34c>
   10b76:	2400106f          	j	11db6 <_vfprintf_r+0x1588>
   10b7a:	66c2                	ld	a3,16(sp)
   10b7c:	866a                	mv	a2,s10
   10b7e:	85ca                	mv	a1,s2
   10b80:	8556                	mv	a0,s5
   10b82:	073010ef          	jal	ra,123f4 <__sbprintf>
   10b86:	e02a                	sd	a0,0(sp)
   10b88:	bf95                	j	10afc <_vfprintf_r+0x2ce>
   10b8a:	41a404bb          	subw	s1,s0,s10
   10b8e:	da0493e3          	bnez	s1,10934 <_vfprintf_r+0x106>
   10b92:	00044783          	lbu	a5,0(s0)
   10b96:	b3e9                	j	10960 <_vfprintf_r+0x132>
   10b98:	0a10                	addi	a2,sp,272
   10b9a:	85ca                	mv	a1,s2
   10b9c:	8556                	mv	a0,s5
   10b9e:	470080ef          	jal	ra,1900e <__sprint_r>
   10ba2:	f129                	bnez	a0,10ae4 <_vfprintf_r+0x2b6>
   10ba4:	835e                	mv	t1,s7
   10ba6:	bb45                	j	10956 <_vfprintf_r+0x128>
   10ba8:	0084f793          	andi	a5,s1,8
   10bac:	440790e3          	bnez	a5,117ec <_vfprintf_r+0xfbe>
   10bb0:	67c2                	ld	a5,16(sp)
   10bb2:	ec1a                	sd	t1,24(sp)
   10bb4:	e47a                	sd	t5,8(sp)
   10bb6:	2388                	fld	fa0,0(a5)
   10bb8:	07a1                	addi	a5,a5,8
   10bba:	e83e                	sd	a5,16(sp)
   10bbc:	6d70b0ef          	jal	ra,1ca92 <__extenddftf2>
   10bc0:	6362                	ld	t1,24(sp)
   10bc2:	6f22                	ld	t5,8(sp)
   10bc4:	e22a                	sd	a0,256(sp)
   10bc6:	e62e                	sd	a1,264(sp)
   10bc8:	0208                	addi	a0,sp,256
   10bca:	ec1a                	sd	t1,24(sp)
   10bcc:	e47a                	sd	t5,8(sp)
   10bce:	11f040ef          	jal	ra,154ec <_ldcheck>
   10bd2:	d5aa                	sw	a0,232(sp)
   10bd4:	4789                	li	a5,2
   10bd6:	6f22                	ld	t5,8(sp)
   10bd8:	6362                	ld	t1,24(sp)
   10bda:	5cf508e3          	beq	a0,a5,119aa <_vfprintf_r+0x117c>
   10bde:	4785                	li	a5,1
   10be0:	72f502e3          	beq	a0,a5,11b04 <_vfprintf_r+0x12d6>
   10be4:	06100793          	li	a5,97
   10be8:	00fc9463          	bne	s9,a5,10bf0 <_vfprintf_r+0x3c2>
   10bec:	5800106f          	j	1216c <_vfprintf_r+0x193e>
   10bf0:	04100793          	li	a5,65
   10bf4:	00fc9463          	bne	s9,a5,10bfc <_vfprintf_r+0x3ce>
   10bf8:	0180106f          	j	11c10 <_vfprintf_r+0x13e2>
   10bfc:	fdfcf713          	andi	a4,s9,-33
   10c00:	57fd                	li	a5,-1
   10c02:	f0ba                	sd	a4,96(sp)
   10c04:	00ff1463          	bne	t5,a5,10c0c <_vfprintf_r+0x3de>
   10c08:	6240106f          	j	1222c <_vfprintf_r+0x19fe>
   10c0c:	04700793          	li	a5,71
   10c10:	00f71463          	bne	a4,a5,10c18 <_vfprintf_r+0x3ea>
   10c14:	60a0106f          	j	1221e <_vfprintf_r+0x19f0>
   10c18:	6a32                	ld	s4,264(sp)
   10c1a:	1004e793          	ori	a5,s1,256
   10c1e:	f126                	sd	s1,160(sp)
   10c20:	6c12                	ld	s8,256(sp)
   10c22:	2781                	sext.w	a5,a5
   10c24:	000a5463          	bgez	s4,10c2c <_vfprintf_r+0x3fe>
   10c28:	34c0106f          	j	11f74 <_vfprintf_r+0x1746>
   10c2c:	e582                	sd	zero,200(sp)
   10c2e:	84be                	mv	s1,a5
   10c30:	ec02                	sd	zero,24(sp)
   10c32:	7706                	ld	a4,96(sp)
   10c34:	04600793          	li	a5,70
   10c38:	00f71463          	bne	a4,a5,10c40 <_vfprintf_r+0x412>
   10c3c:	3960106f          	j	11fd2 <_vfprintf_r+0x17a4>
   10c40:	04500793          	li	a5,69
   10c44:	00f71463          	bne	a4,a5,10c4c <_vfprintf_r+0x41e>
   10c48:	54e0106f          	j	12196 <_vfprintf_r+0x1968>
   10c4c:	877a                	mv	a4,t5
   10c4e:	11bc                	addi	a5,sp,232
   10c50:	0f810893          	addi	a7,sp,248
   10c54:	0ec10813          	addi	a6,sp,236
   10c58:	4689                	li	a3,2
   10c5a:	85e2                	mv	a1,s8
   10c5c:	8652                	mv	a2,s4
   10c5e:	8556                	mv	a0,s5
   10c60:	f01a                	sd	t1,32(sp)
   10c62:	e47a                	sd	t5,8(sp)
   10c64:	213030ef          	jal	ra,14676 <_ldtoa_r>
   10c68:	7706                	ld	a4,96(sp)
   10c6a:	04700793          	li	a5,71
   10c6e:	6f22                	ld	t5,8(sp)
   10c70:	7302                	ld	t1,32(sp)
   10c72:	8d2a                	mv	s10,a0
   10c74:	00f70463          	beq	a4,a5,10c7c <_vfprintf_r+0x44e>
   10c78:	74e0106f          	j	123c6 <_vfprintf_r+0x1b98>
   10c7c:	778a                	ld	a5,160(sp)
   10c7e:	8b85                	andi	a5,a5,1
   10c80:	c399                	beqz	a5,10c86 <_vfprintf_r+0x458>
   10c82:	58e0106f          	j	12210 <_vfprintf_r+0x19e2>
   10c86:	77ee                	ld	a5,248(sp)
   10c88:	41a787bb          	subw	a5,a5,s10
   10c8c:	f03e                	sd	a5,32(sp)
   10c8e:	572e                	lw	a4,232(sp)
   10c90:	04700793          	li	a5,71
   10c94:	ecba                	sd	a4,88(sp)
   10c96:	7706                	ld	a4,96(sp)
   10c98:	00f71463          	bne	a4,a5,10ca0 <_vfprintf_r+0x472>
   10c9c:	1260106f          	j	11dc2 <_vfprintf_r+0x1594>
   10ca0:	7706                	ld	a4,96(sp)
   10ca2:	04600793          	li	a5,70
   10ca6:	00f71463          	bne	a4,a5,10cae <_vfprintf_r+0x480>
   10caa:	4260106f          	j	120d0 <_vfprintf_r+0x18a2>
   10cae:	67e6                	ld	a5,88(sp)
   10cb0:	7586                	ld	a1,96(sp)
   10cb2:	04100613          	li	a2,65
   10cb6:	37fd                	addiw	a5,a5,-1
   10cb8:	d5be                	sw	a5,232(sp)
   10cba:	0ffcf713          	zext.b	a4,s9
   10cbe:	4681                	li	a3,0
   10cc0:	00c59663          	bne	a1,a2,10ccc <_vfprintf_r+0x49e>
   10cc4:	273d                	addiw	a4,a4,15
   10cc6:	0ff77713          	zext.b	a4,a4
   10cca:	4685                	li	a3,1
   10ccc:	0ee10823          	sb	a4,240(sp)
   10cd0:	02b00713          	li	a4,43
   10cd4:	0007d763          	bgez	a5,10ce2 <_vfprintf_r+0x4b4>
   10cd8:	6766                	ld	a4,88(sp)
   10cda:	4785                	li	a5,1
   10cdc:	9f99                	subw	a5,a5,a4
   10cde:	02d00713          	li	a4,45
   10ce2:	0ee108a3          	sb	a4,241(sp)
   10ce6:	4725                	li	a4,9
   10ce8:	00f74463          	blt	a4,a5,10cf0 <_vfprintf_r+0x4c2>
   10cec:	5ba0106f          	j	122a6 <_vfprintf_r+0x1a78>
   10cf0:	0ff10513          	addi	a0,sp,255
   10cf4:	88aa                	mv	a7,a0
   10cf6:	46a9                	li	a3,10
   10cf8:	06300f13          	li	t5,99
   10cfc:	02d7e73b          	remw	a4,a5,a3
   10d00:	85c6                	mv	a1,a7
   10d02:	863e                	mv	a2,a5
   10d04:	18fd                	addi	a7,a7,-1
   10d06:	0307071b          	addiw	a4,a4,48
   10d0a:	fee58fa3          	sb	a4,-1(a1)
   10d0e:	02d7c7bb          	divw	a5,a5,a3
   10d12:	fecf45e3          	blt	t5,a2,10cfc <_vfprintf_r+0x4ce>
   10d16:	0307879b          	addiw	a5,a5,48
   10d1a:	0ff7f693          	zext.b	a3,a5
   10d1e:	fed88fa3          	sb	a3,-1(a7)
   10d22:	ffe58793          	addi	a5,a1,-2
   10d26:	00a7e463          	bltu	a5,a0,10d2e <_vfprintf_r+0x500>
   10d2a:	6b20106f          	j	123dc <_vfprintf_r+0x1bae>
   10d2e:	0f210713          	addi	a4,sp,242
   10d32:	a019                	j	10d38 <_vfprintf_r+0x50a>
   10d34:	0007c683          	lbu	a3,0(a5)
   10d38:	00d70023          	sb	a3,0(a4)
   10d3c:	0785                	addi	a5,a5,1
   10d3e:	0705                	addi	a4,a4,1
   10d40:	fea79ae3          	bne	a5,a0,10d34 <_vfprintf_r+0x506>
   10d44:	10110793          	addi	a5,sp,257
   10d48:	0f210713          	addi	a4,sp,242
   10d4c:	8f8d                	sub	a5,a5,a1
   10d4e:	97ba                	add	a5,a5,a4
   10d50:	1998                	addi	a4,sp,240
   10d52:	9f99                	subw	a5,a5,a4
   10d54:	e13e                	sd	a5,128(sp)
   10d56:	678a                	ld	a5,128(sp)
   10d58:	7682                	ld	a3,32(sp)
   10d5a:	4705                	li	a4,1
   10d5c:	00d78c3b          	addw	s8,a5,a3
   10d60:	87e2                	mv	a5,s8
   10d62:	00d74463          	blt	a4,a3,10d6a <_vfprintf_r+0x53c>
   10d66:	5c60106f          	j	1232c <_vfprintf_r+0x1afe>
   10d6a:	7746                	ld	a4,112(sp)
   10d6c:	00e78c3b          	addw	s8,a5,a4
   10d70:	778a                	ld	a5,160(sp)
   10d72:	fffc4a13          	not	s4,s8
   10d76:	43fa5a13          	srai	s4,s4,0x3f
   10d7a:	bff7f493          	andi	s1,a5,-1025
   10d7e:	2481                	sext.w	s1,s1
   10d80:	014c7a33          	and	s4,s8,s4
   10d84:	1004e493          	ori	s1,s1,256
   10d88:	2a01                	sext.w	s4,s4
   10d8a:	e882                	sd	zero,80(sp)
   10d8c:	f082                	sd	zero,96(sp)
   10d8e:	ec82                	sd	zero,88(sp)
   10d90:	67ae                	ld	a5,200(sp)
   10d92:	e399                	bnez	a5,10d98 <_vfprintf_r+0x56a>
   10d94:	0840106f          	j	11e18 <_vfprintf_r+0x15ea>
   10d98:	02d00793          	li	a5,45
   10d9c:	0cf10fa3          	sb	a5,223(sp)
   10da0:	4f01                	li	t5,0
   10da2:	2a05                	addiw	s4,s4,1
   10da4:	b981                	j	109f4 <_vfprintf_r+0x1c6>
   10da6:	0a10                	addi	a2,sp,272
   10da8:	85ca                	mv	a1,s2
   10daa:	8556                	mv	a0,s5
   10dac:	fc7a                	sd	t5,56(sp)
   10dae:	f87e                	sd	t6,48(sp)
   10db0:	e416                	sd	t0,8(sp)
   10db2:	25c080ef          	jal	ra,1900e <__sprint_r>
   10db6:	60051463          	bnez	a0,113be <_vfprintf_r+0xb90>
   10dba:	7792                	ld	a5,288(sp)
   10dbc:	7f62                	ld	t5,56(sp)
   10dbe:	7fc2                	ld	t6,48(sp)
   10dc0:	62a2                	ld	t0,8(sp)
   10dc2:	835e                	mv	t1,s7
   10dc4:	b9a5                	j	10a3c <_vfprintf_r+0x20e>
   10dc6:	11812683          	lw	a3,280(sp)
   10dca:	7702                	ld	a4,32(sp)
   10dcc:	4605                	li	a2,1
   10dce:	00168c1b          	addiw	s8,a3,1
   10dd2:	01a33023          	sd	s10,0(t1)
   10dd6:	0785                	addi	a5,a5,1
   10dd8:	86e2                	mv	a3,s8
   10dda:	01030c93          	addi	s9,t1,16
   10dde:	06e65be3          	bge	a2,a4,11654 <_vfprintf_r+0xe26>
   10de2:	4605                	li	a2,1
   10de4:	10d12c23          	sw	a3,280(sp)
   10de8:	00c33423          	sd	a2,8(t1)
   10dec:	f23e                	sd	a5,288(sp)
   10dee:	469d                	li	a3,7
   10df0:	2d86c2e3          	blt	a3,s8,118b4 <_vfprintf_r+0x1086>
   10df4:	7746                	ld	a4,112(sp)
   10df6:	7666                	ld	a2,120(sp)
   10df8:	2c05                	addiw	s8,s8,1
   10dfa:	97ba                	add	a5,a5,a4
   10dfc:	00ccb023          	sd	a2,0(s9)
   10e00:	00ecb423          	sd	a4,8(s9)
   10e04:	f23e                	sd	a5,288(sp)
   10e06:	11812c23          	sw	s8,280(sp)
   10e0a:	469d                	li	a3,7
   10e0c:	0cc1                	addi	s9,s9,16
   10e0e:	2d86c0e3          	blt	a3,s8,118ce <_vfprintf_r+0x10a0>
   10e12:	6512                	ld	a0,256(sp)
   10e14:	65b2                	ld	a1,264(sp)
   10e16:	4681                	li	a3,0
   10e18:	4601                	li	a2,0
   10e1a:	e43e                	sd	a5,8(sp)
   10e1c:	38d0a0ef          	jal	ra,1b9a8 <__eqtf2>
   10e20:	7782                	ld	a5,32(sp)
   10e22:	fff7869b          	addiw	a3,a5,-1
   10e26:	67a2                	ld	a5,8(sp)
   10e28:	04050fe3          	beqz	a0,11686 <_vfprintf_r+0xe58>
   10e2c:	2c05                	addiw	s8,s8,1
   10e2e:	001d0813          	addi	a6,s10,1
   10e32:	8662                	mv	a2,s8
   10e34:	97b6                	add	a5,a5,a3
   10e36:	010cb023          	sd	a6,0(s9)
   10e3a:	00dcb423          	sd	a3,8(s9)
   10e3e:	f23e                	sd	a5,288(sp)
   10e40:	10c12c23          	sw	a2,280(sp)
   10e44:	469d                	li	a3,7
   10e46:	0cc1                	addi	s9,s9,16
   10e48:	0386c2e3          	blt	a3,s8,1166c <_vfprintf_r+0xe3e>
   10e4c:	670a                	ld	a4,128(sp)
   10e4e:	1994                	addi	a3,sp,240
   10e50:	001c061b          	addiw	a2,s8,1
   10e54:	97ba                	add	a5,a5,a4
   10e56:	00dcb023          	sd	a3,0(s9)
   10e5a:	00ecb423          	sd	a4,8(s9)
   10e5e:	f23e                	sd	a5,288(sp)
   10e60:	10c12c23          	sw	a2,280(sp)
   10e64:	469d                	li	a3,7
   10e66:	010c8313          	addi	t1,s9,16
   10e6a:	c2c6dae3          	bge	a3,a2,10a9e <_vfprintf_r+0x270>
   10e6e:	0a10                	addi	a2,sp,272
   10e70:	85ca                	mv	a1,s2
   10e72:	8556                	mv	a0,s5
   10e74:	19a080ef          	jal	ra,1900e <__sprint_r>
   10e78:	54051363          	bnez	a0,113be <_vfprintf_r+0xb90>
   10e7c:	7792                	ld	a5,288(sp)
   10e7e:	835e                	mv	t1,s7
   10e80:	b939                	j	10a9e <_vfprintf_r+0x270>
   10e82:	2007f713          	andi	a4,a5,512
   10e86:	c60716e3          	bnez	a4,10af2 <_vfprintf_r+0x2c4>
   10e8a:	0a093503          	ld	a0,160(s2)
   10e8e:	6c8040ef          	jal	ra,15556 <__retarget_lock_release_recursive>
   10e92:	01095783          	lhu	a5,16(s2)
   10e96:	b9b1                	j	10af2 <_vfprintf_r+0x2c4>
   10e98:	8556                	mv	a0,s5
   10e9a:	335010ef          	jal	ra,129ce <__sinit>
   10e9e:	bac5                	j	1088e <_vfprintf_r+0x60>
   10ea0:	0104e493          	ori	s1,s1,16
   10ea4:	2481                	sext.w	s1,s1
   10ea6:	6742                	ld	a4,16(sp)
   10ea8:	0204f793          	andi	a5,s1,32
   10eac:	00870693          	addi	a3,a4,8
   10eb0:	00078ee3          	beqz	a5,116cc <_vfprintf_r+0xe9e>
   10eb4:	631c                	ld	a5,0(a4)
   10eb6:	8a3e                	mv	s4,a5
   10eb8:	0207c7e3          	bltz	a5,116e6 <_vfprintf_r+0xeb8>
   10ebc:	57fd                	li	a5,-1
   10ebe:	5aff0e63          	beq	t5,a5,1147a <_vfprintf_r+0xc4c>
   10ec2:	f7f4f713          	andi	a4,s1,-129
   10ec6:	e836                	sd	a3,16(sp)
   10ec8:	2701                	sext.w	a4,a4
   10eca:	5a0a1a63          	bnez	s4,1147e <_vfprintf_r+0xc50>
   10ece:	5a0f1b63          	bnez	t5,11484 <_vfprintf_r+0xc56>
   10ed2:	84ba                	mv	s1,a4
   10ed4:	4f01                	li	t5,0
   10ed6:	4c01                	li	s8,0
   10ed8:	18c10d13          	addi	s10,sp,396
   10edc:	0df14783          	lbu	a5,223(sp)
   10ee0:	000f0a1b          	sext.w	s4,t5
   10ee4:	018f5463          	bge	t5,s8,10eec <_vfprintf_r+0x6be>
   10ee8:	000c0a1b          	sext.w	s4,s8
   10eec:	ec02                	sd	zero,24(sp)
   10eee:	e882                	sd	zero,80(sp)
   10ef0:	f082                	sd	zero,96(sp)
   10ef2:	ec82                	sd	zero,88(sp)
   10ef4:	b00780e3          	beqz	a5,109f4 <_vfprintf_r+0x1c6>
   10ef8:	2a05                	addiw	s4,s4,1
   10efa:	bced                	j	109f4 <_vfprintf_r+0x1c6>
   10efc:	6742                	ld	a4,16(sp)
   10efe:	0c010fa3          	sb	zero,223(sp)
   10f02:	4a05                	li	s4,1
   10f04:	431c                	lw	a5,0(a4)
   10f06:	0721                	addi	a4,a4,8
   10f08:	e83a                	sd	a4,16(sp)
   10f0a:	12f10423          	sb	a5,296(sp)
   10f0e:	4c05                	li	s8,1
   10f10:	12810d13          	addi	s10,sp,296
   10f14:	bcd9                	j	109ea <_vfprintf_r+0x1bc>
   10f16:	67c2                	ld	a5,16(sp)
   10f18:	0c010fa3          	sb	zero,223(sp)
   10f1c:	0007bd03          	ld	s10,0(a5)
   10f20:	00878713          	addi	a4,a5,8
   10f24:	160d04e3          	beqz	s10,1188c <_vfprintf_r+0x105e>
   10f28:	57fd                	li	a5,-1
   10f2a:	34ff0de3          	beq	t5,a5,11a84 <_vfprintf_r+0x1256>
   10f2e:	867a                	mv	a2,t5
   10f30:	4581                	li	a1,0
   10f32:	856a                	mv	a0,s10
   10f34:	f83a                	sd	a4,48(sp)
   10f36:	e81a                	sd	t1,16(sp)
   10f38:	e47a                	sd	t5,8(sp)
   10f3a:	5dd040ef          	jal	ra,15d16 <memchr>
   10f3e:	ec2a                	sd	a0,24(sp)
   10f40:	6f22                	ld	t5,8(sp)
   10f42:	6342                	ld	t1,16(sp)
   10f44:	7742                	ld	a4,48(sp)
   10f46:	e119                	bnez	a0,10f4c <_vfprintf_r+0x71e>
   10f48:	1220106f          	j	1206a <_vfprintf_r+0x183c>
   10f4c:	67e2                	ld	a5,24(sp)
   10f4e:	e83a                	sd	a4,16(sp)
   10f50:	ec02                	sd	zero,24(sp)
   10f52:	41a78c3b          	subw	s8,a5,s10
   10f56:	0df14783          	lbu	a5,223(sp)
   10f5a:	fffc4a13          	not	s4,s8
   10f5e:	43fa5a13          	srai	s4,s4,0x3f
   10f62:	e882                	sd	zero,80(sp)
   10f64:	f082                	sd	zero,96(sp)
   10f66:	ec82                	sd	zero,88(sp)
   10f68:	018a7a33          	and	s4,s4,s8
   10f6c:	4f01                	li	t5,0
   10f6e:	f7c9                	bnez	a5,10ef8 <_vfprintf_r+0x6ca>
   10f70:	b451                	j	109f4 <_vfprintf_r+0x1c6>
   10f72:	0104e493          	ori	s1,s1,16
   10f76:	2481                	sext.w	s1,s1
   10f78:	6742                	ld	a4,16(sp)
   10f7a:	0204f793          	andi	a5,s1,32
   10f7e:	00870693          	addi	a3,a4,8
   10f82:	78078c63          	beqz	a5,1171a <_vfprintf_r+0xeec>
   10f86:	00073a03          	ld	s4,0(a4)
   10f8a:	bff4f713          	andi	a4,s1,-1025
   10f8e:	2701                	sext.w	a4,a4
   10f90:	e836                	sd	a3,16(sp)
   10f92:	4781                	li	a5,0
   10f94:	0c010fa3          	sb	zero,223(sp)
   10f98:	56fd                	li	a3,-1
   10f9a:	1cdf0763          	beq	t5,a3,11168 <_vfprintf_r+0x93a>
   10f9e:	f7f77493          	andi	s1,a4,-129
   10fa2:	2481                	sext.w	s1,s1
   10fa4:	1c0a1163          	bnez	s4,11166 <_vfprintf_r+0x938>
   10fa8:	200f1463          	bnez	t5,111b0 <_vfprintf_r+0x982>
   10fac:	f785                	bnez	a5,10ed4 <_vfprintf_r+0x6a6>
   10fae:	00177c13          	andi	s8,a4,1
   10fb2:	18c10d13          	addi	s10,sp,396
   10fb6:	f20c03e3          	beqz	s8,10edc <_vfprintf_r+0x6ae>
   10fba:	03000793          	li	a5,48
   10fbe:	18f105a3          	sb	a5,395(sp)
   10fc2:	18b10d13          	addi	s10,sp,395
   10fc6:	bf19                	j	10edc <_vfprintf_r+0x6ae>
   10fc8:	67c2                	ld	a5,16(sp)
   10fca:	0007ab03          	lw	s6,0(a5)
   10fce:	00878c93          	addi	s9,a5,8
   10fd2:	780b5263          	bgez	s6,11756 <_vfprintf_r+0xf28>
   10fd6:	41600b3b          	negw	s6,s6
   10fda:	e866                	sd	s9,16(sp)
   10fdc:	0044e493          	ori	s1,s1,4
   10fe0:	00044e83          	lbu	t4,0(s0)
   10fe4:	2481                	sext.w	s1,s1
   10fe6:	ba51                	j	1097a <_vfprintf_r+0x14c>
   10fe8:	02b00793          	li	a5,43
   10fec:	00044e83          	lbu	t4,0(s0)
   10ff0:	0cf10fa3          	sb	a5,223(sp)
   10ff4:	b259                	j	1097a <_vfprintf_r+0x14c>
   10ff6:	0104e713          	ori	a4,s1,16
   10ffa:	2701                	sext.w	a4,a4
   10ffc:	6642                	ld	a2,16(sp)
   10ffe:	02077793          	andi	a5,a4,32
   11002:	00860693          	addi	a3,a2,8
   11006:	6e078a63          	beqz	a5,116fa <_vfprintf_r+0xecc>
   1100a:	00063a03          	ld	s4,0(a2)
   1100e:	4785                	li	a5,1
   11010:	e836                	sd	a3,16(sp)
   11012:	b749                	j	10f94 <_vfprintf_r+0x766>
   11014:	0804e493          	ori	s1,s1,128
   11018:	00044e83          	lbu	t4,0(s0)
   1101c:	2481                	sext.w	s1,s1
   1101e:	bab1                	j	1097a <_vfprintf_r+0x14c>
   11020:	66c2                	ld	a3,16(sp)
   11022:	77e1                	lui	a5,0xffff8
   11024:	8307c793          	xori	a5,a5,-2000
   11028:	0ef11023          	sh	a5,224(sp)
   1102c:	00868793          	addi	a5,a3,8 # 2008 <main-0xe0a8>
   11030:	0024e713          	ori	a4,s1,2
   11034:	e83e                	sd	a5,16(sp)
   11036:	0000c797          	auipc	a5,0xc
   1103a:	ec278793          	addi	a5,a5,-318 # 1cef8 <__clzdi2+0x178>
   1103e:	f43e                	sd	a5,40(sp)
   11040:	0006ba03          	ld	s4,0(a3)
   11044:	2701                	sext.w	a4,a4
   11046:	4789                	li	a5,2
   11048:	07800c93          	li	s9,120
   1104c:	b7a1                	j	10f94 <_vfprintf_r+0x766>
   1104e:	0204e493          	ori	s1,s1,32
   11052:	00044e83          	lbu	t4,0(s0)
   11056:	2481                	sext.w	s1,s1
   11058:	b20d                	j	1097a <_vfprintf_r+0x14c>
   1105a:	00044e83          	lbu	t4,0(s0)
   1105e:	06800793          	li	a5,104
   11062:	00fe8de3          	beq	t4,a5,1187c <_vfprintf_r+0x104e>
   11066:	0404e493          	ori	s1,s1,64
   1106a:	2481                	sext.w	s1,s1
   1106c:	b239                	j	1097a <_vfprintf_r+0x14c>
   1106e:	66c2                	ld	a3,16(sp)
   11070:	0204f793          	andi	a5,s1,32
   11074:	6298                	ld	a4,0(a3)
   11076:	06a1                	addi	a3,a3,8
   11078:	e836                	sd	a3,16(sp)
   1107a:	74079363          	bnez	a5,117c0 <_vfprintf_r+0xf92>
   1107e:	0104f793          	andi	a5,s1,16
   11082:	72079f63          	bnez	a5,117c0 <_vfprintf_r+0xf92>
   11086:	0404f793          	andi	a5,s1,64
   1108a:	30079fe3          	bnez	a5,11ba8 <_vfprintf_r+0x137a>
   1108e:	2004f493          	andi	s1,s1,512
   11092:	6782                	ld	a5,0(sp)
   11094:	e099                	bnez	s1,1109a <_vfprintf_r+0x86c>
   11096:	1800106f          	j	12216 <_vfprintf_r+0x19e8>
   1109a:	00f70023          	sb	a5,0(a4)
   1109e:	8d22                	mv	s10,s0
   110a0:	bc05                	j	10ad0 <_vfprintf_r+0x2a2>
   110a2:	00044e83          	lbu	t4,0(s0)
   110a6:	06c00793          	li	a5,108
   110aa:	7cfe8163          	beq	t4,a5,1186c <_vfprintf_r+0x103e>
   110ae:	0104e493          	ori	s1,s1,16
   110b2:	2481                	sext.w	s1,s1
   110b4:	b0d9                	j	1097a <_vfprintf_r+0x14c>
   110b6:	0084e493          	ori	s1,s1,8
   110ba:	00044e83          	lbu	t4,0(s0)
   110be:	2481                	sext.w	s1,s1
   110c0:	b86d                	j	1097a <_vfprintf_r+0x14c>
   110c2:	8556                	mv	a0,s5
   110c4:	ec1a                	sd	t1,24(sp)
   110c6:	e47a                	sd	t5,8(sp)
   110c8:	46c040ef          	jal	ra,15534 <_localeconv_r>
   110cc:	651c                	ld	a5,8(a0)
   110ce:	853e                	mv	a0,a5
   110d0:	e93e                	sd	a5,144(sp)
   110d2:	ec6ff0ef          	jal	ra,10798 <strlen>
   110d6:	87aa                	mv	a5,a0
   110d8:	8556                	mv	a0,s5
   110da:	8cbe                	mv	s9,a5
   110dc:	e53e                	sd	a5,136(sp)
   110de:	456040ef          	jal	ra,15534 <_localeconv_r>
   110e2:	6918                	ld	a4,16(a0)
   110e4:	6f22                	ld	t5,8(sp)
   110e6:	6362                	ld	t1,24(sp)
   110e8:	f4ba                	sd	a4,104(sp)
   110ea:	00044e83          	lbu	t4,0(s0)
   110ee:	880c86e3          	beqz	s9,1097a <_vfprintf_r+0x14c>
   110f2:	880704e3          	beqz	a4,1097a <_vfprintf_r+0x14c>
   110f6:	00074783          	lbu	a5,0(a4)
   110fa:	880780e3          	beqz	a5,1097a <_vfprintf_r+0x14c>
   110fe:	4004e493          	ori	s1,s1,1024
   11102:	2481                	sext.w	s1,s1
   11104:	b89d                	j	1097a <_vfprintf_r+0x14c>
   11106:	0014e493          	ori	s1,s1,1
   1110a:	00044e83          	lbu	t4,0(s0)
   1110e:	2481                	sext.w	s1,s1
   11110:	b0ad                	j	1097a <_vfprintf_r+0x14c>
   11112:	0df14783          	lbu	a5,223(sp)
   11116:	00044e83          	lbu	t4,0(s0)
   1111a:	860790e3          	bnez	a5,1097a <_vfprintf_r+0x14c>
   1111e:	02000793          	li	a5,32
   11122:	0cf10fa3          	sb	a5,223(sp)
   11126:	b891                	j	1097a <_vfprintf_r+0x14c>
   11128:	00044c83          	lbu	s9,0(s0)
   1112c:	00140713          	addi	a4,s0,1
   11130:	018c9463          	bne	s9,s8,11138 <_vfprintf_r+0x90a>
   11134:	2740106f          	j	123a8 <_vfprintf_r+0x1b7a>
   11138:	fd0c879b          	addiw	a5,s9,-48
   1113c:	843a                	mv	s0,a4
   1113e:	4f01                	li	t5,0
   11140:	84fa61e3          	bltu	s4,a5,10982 <_vfprintf_r+0x154>
   11144:	00044c83          	lbu	s9,0(s0)
   11148:	002f169b          	slliw	a3,t5,0x2
   1114c:	01e686bb          	addw	a3,a3,t5
   11150:	0016969b          	slliw	a3,a3,0x1
   11154:	00f68f3b          	addw	t5,a3,a5
   11158:	fd0c879b          	addiw	a5,s9,-48
   1115c:	0405                	addi	s0,s0,1
   1115e:	fefa73e3          	bgeu	s4,a5,11144 <_vfprintf_r+0x916>
   11162:	821ff06f          	j	10982 <_vfprintf_r+0x154>
   11166:	8726                	mv	a4,s1
   11168:	4685                	li	a3,1
   1116a:	30d78a63          	beq	a5,a3,1147e <_vfprintf_r+0xc50>
   1116e:	4689                	li	a3,2
   11170:	04d78963          	beq	a5,a3,111c2 <_vfprintf_r+0x994>
   11174:	18c10c13          	addi	s8,sp,396
   11178:	8d62                	mv	s10,s8
   1117a:	007a7793          	andi	a5,s4,7
   1117e:	03078793          	addi	a5,a5,48
   11182:	fefd0fa3          	sb	a5,-1(s10)
   11186:	003a5a13          	srli	s4,s4,0x3
   1118a:	86ea                	mv	a3,s10
   1118c:	1d7d                	addi	s10,s10,-1
   1118e:	fe0a16e3          	bnez	s4,1117a <_vfprintf_r+0x94c>
   11192:	00177613          	andi	a2,a4,1
   11196:	c631                	beqz	a2,111e2 <_vfprintf_r+0x9b4>
   11198:	03000613          	li	a2,48
   1119c:	04c78363          	beq	a5,a2,111e2 <_vfprintf_r+0x9b4>
   111a0:	16f9                	addi	a3,a3,-2
   111a2:	fecd0fa3          	sb	a2,-1(s10)
   111a6:	40dc0c3b          	subw	s8,s8,a3
   111aa:	84ba                	mv	s1,a4
   111ac:	8d36                	mv	s10,a3
   111ae:	b33d                	j	10edc <_vfprintf_r+0x6ae>
   111b0:	4705                	li	a4,1
   111b2:	00e79463          	bne	a5,a4,111ba <_vfprintf_r+0x98c>
   111b6:	7b10006f          	j	12166 <_vfprintf_r+0x1938>
   111ba:	4709                	li	a4,2
   111bc:	18e79ee3          	bne	a5,a4,11b58 <_vfprintf_r+0x132a>
   111c0:	8726                	mv	a4,s1
   111c2:	18c10c13          	addi	s8,sp,396
   111c6:	8d62                	mv	s10,s8
   111c8:	76a2                	ld	a3,40(sp)
   111ca:	00fa7793          	andi	a5,s4,15
   111ce:	1d7d                	addi	s10,s10,-1
   111d0:	97b6                	add	a5,a5,a3
   111d2:	0007c783          	lbu	a5,0(a5)
   111d6:	004a5a13          	srli	s4,s4,0x4
   111da:	00fd0023          	sb	a5,0(s10)
   111de:	fe0a15e3          	bnez	s4,111c8 <_vfprintf_r+0x99a>
   111e2:	41ac0c3b          	subw	s8,s8,s10
   111e6:	84ba                	mv	s1,a4
   111e8:	b9d5                	j	10edc <_vfprintf_r+0x6ae>
   111ea:	06500713          	li	a4,101
   111ee:	bd975ce3          	bge	a4,s9,10dc6 <_vfprintf_r+0x598>
   111f2:	6512                	ld	a0,256(sp)
   111f4:	65b2                	ld	a1,264(sp)
   111f6:	4601                	li	a2,0
   111f8:	4681                	li	a3,0
   111fa:	f81a                	sd	t1,48(sp)
   111fc:	e43e                	sd	a5,8(sp)
   111fe:	7aa0a0ef          	jal	ra,1b9a8 <__eqtf2>
   11202:	67a2                	ld	a5,8(sp)
   11204:	7342                	ld	t1,48(sp)
   11206:	32051663          	bnez	a0,11532 <_vfprintf_r+0xd04>
   1120a:	11812703          	lw	a4,280(sp)
   1120e:	0000c697          	auipc	a3,0xc
   11212:	d2268693          	addi	a3,a3,-734 # 1cf30 <__clzdi2+0x1b0>
   11216:	00d33023          	sd	a3,0(t1)
   1121a:	2705                	addiw	a4,a4,1
   1121c:	4685                	li	a3,1
   1121e:	0785                	addi	a5,a5,1
   11220:	00d33423          	sd	a3,8(t1)
   11224:	10e12c23          	sw	a4,280(sp)
   11228:	86ba                	mv	a3,a4
   1122a:	f23e                	sd	a5,288(sp)
   1122c:	471d                	li	a4,7
   1122e:	0341                	addi	t1,t1,16
   11230:	74d74b63          	blt	a4,a3,11986 <_vfprintf_r+0x1158>
   11234:	572e                	lw	a4,232(sp)
   11236:	7682                	ld	a3,32(sp)
   11238:	4ed75f63          	bge	a4,a3,11736 <_vfprintf_r+0xf08>
   1123c:	7766                	ld	a4,120(sp)
   1123e:	76c6                	ld	a3,112(sp)
   11240:	0341                	addi	t1,t1,16
   11242:	fee33823          	sd	a4,-16(t1)
   11246:	11812703          	lw	a4,280(sp)
   1124a:	97b6                	add	a5,a5,a3
   1124c:	fed33c23          	sd	a3,-8(t1)
   11250:	2705                	addiw	a4,a4,1
   11252:	86ba                	mv	a3,a4
   11254:	10e12c23          	sw	a4,280(sp)
   11258:	f23e                	sd	a5,288(sp)
   1125a:	471d                	li	a4,7
   1125c:	5ed74e63          	blt	a4,a3,11858 <_vfprintf_r+0x102a>
   11260:	7702                	ld	a4,32(sp)
   11262:	fff70c1b          	addiw	s8,a4,-1
   11266:	83805ce3          	blez	s8,10a9e <_vfprintf_r+0x270>
   1126a:	11812703          	lw	a4,280(sp)
   1126e:	738dd663          	bge	s11,s8,1199a <_vfprintf_r+0x116c>
   11272:	4c9d                	li	s9,7
   11274:	a021                	j	1127c <_vfprintf_r+0xa4e>
   11276:	3c41                	addiw	s8,s8,-16
   11278:	738dd163          	bge	s11,s8,1199a <_vfprintf_r+0x116c>
   1127c:	2705                	addiw	a4,a4,1
   1127e:	07c1                	addi	a5,a5,16
   11280:	01333023          	sd	s3,0(t1)
   11284:	01b33423          	sd	s11,8(t1)
   11288:	f23e                	sd	a5,288(sp)
   1128a:	10e12c23          	sw	a4,280(sp)
   1128e:	0341                	addi	t1,t1,16
   11290:	feecd3e3          	bge	s9,a4,11276 <_vfprintf_r+0xa48>
   11294:	0a10                	addi	a2,sp,272
   11296:	85ca                	mv	a1,s2
   11298:	8556                	mv	a0,s5
   1129a:	575070ef          	jal	ra,1900e <__sprint_r>
   1129e:	12051063          	bnez	a0,113be <_vfprintf_r+0xb90>
   112a2:	7792                	ld	a5,288(sp)
   112a4:	11812703          	lw	a4,280(sp)
   112a8:	835e                	mv	t1,s7
   112aa:	b7f1                	j	11276 <_vfprintf_r+0xa48>
   112ac:	414b06bb          	subw	a3,s6,s4
   112b0:	fad05e63          	blez	a3,10a6c <_vfprintf_r+0x23e>
   112b4:	11812703          	lw	a4,280(sp)
   112b8:	04ddd563          	bge	s11,a3,11302 <_vfprintf_r+0xad4>
   112bc:	489d                	li	a7,7
   112be:	a021                	j	112c6 <_vfprintf_r+0xa98>
   112c0:	36c1                	addiw	a3,a3,-16
   112c2:	04ddd063          	bge	s11,a3,11302 <_vfprintf_r+0xad4>
   112c6:	2705                	addiw	a4,a4,1
   112c8:	07c1                	addi	a5,a5,16
   112ca:	01333023          	sd	s3,0(t1)
   112ce:	01b33423          	sd	s11,8(t1)
   112d2:	f23e                	sd	a5,288(sp)
   112d4:	10e12c23          	sw	a4,280(sp)
   112d8:	0341                	addi	t1,t1,16
   112da:	fee8d3e3          	bge	a7,a4,112c0 <_vfprintf_r+0xa92>
   112de:	0a10                	addi	a2,sp,272
   112e0:	85ca                	mv	a1,s2
   112e2:	8556                	mv	a0,s5
   112e4:	f836                	sd	a3,48(sp)
   112e6:	e47a                	sd	t5,8(sp)
   112e8:	527070ef          	jal	ra,1900e <__sprint_r>
   112ec:	e969                	bnez	a0,113be <_vfprintf_r+0xb90>
   112ee:	76c2                	ld	a3,48(sp)
   112f0:	7792                	ld	a5,288(sp)
   112f2:	11812703          	lw	a4,280(sp)
   112f6:	36c1                	addiw	a3,a3,-16
   112f8:	6f22                	ld	t5,8(sp)
   112fa:	835e                	mv	t1,s7
   112fc:	489d                	li	a7,7
   112fe:	fcddc4e3          	blt	s11,a3,112c6 <_vfprintf_r+0xa98>
   11302:	2705                	addiw	a4,a4,1
   11304:	97b6                	add	a5,a5,a3
   11306:	00d33423          	sd	a3,8(t1)
   1130a:	01333023          	sd	s3,0(t1)
   1130e:	86ba                	mv	a3,a4
   11310:	10e12c23          	sw	a4,280(sp)
   11314:	f23e                	sd	a5,288(sp)
   11316:	471d                	li	a4,7
   11318:	0341                	addi	t1,t1,16
   1131a:	f4d75963          	bge	a4,a3,10a6c <_vfprintf_r+0x23e>
   1131e:	0a10                	addi	a2,sp,272
   11320:	85ca                	mv	a1,s2
   11322:	8556                	mv	a0,s5
   11324:	e47a                	sd	t5,8(sp)
   11326:	4e9070ef          	jal	ra,1900e <__sprint_r>
   1132a:	e951                	bnez	a0,113be <_vfprintf_r+0xb90>
   1132c:	7792                	ld	a5,288(sp)
   1132e:	6f22                	ld	t5,8(sp)
   11330:	835e                	mv	t1,s7
   11332:	f3aff06f          	j	10a6c <_vfprintf_r+0x23e>
   11336:	11812703          	lw	a4,280(sp)
   1133a:	05edd363          	bge	s11,t5,11380 <_vfprintf_r+0xb52>
   1133e:	489d                	li	a7,7
   11340:	a021                	j	11348 <_vfprintf_r+0xb1a>
   11342:	3f41                	addiw	t5,t5,-16
   11344:	03edde63          	bge	s11,t5,11380 <_vfprintf_r+0xb52>
   11348:	2705                	addiw	a4,a4,1
   1134a:	07c1                	addi	a5,a5,16
   1134c:	01333023          	sd	s3,0(t1)
   11350:	01b33423          	sd	s11,8(t1)
   11354:	f23e                	sd	a5,288(sp)
   11356:	10e12c23          	sw	a4,280(sp)
   1135a:	0341                	addi	t1,t1,16
   1135c:	fee8d3e3          	bge	a7,a4,11342 <_vfprintf_r+0xb14>
   11360:	0a10                	addi	a2,sp,272
   11362:	85ca                	mv	a1,s2
   11364:	8556                	mv	a0,s5
   11366:	e47a                	sd	t5,8(sp)
   11368:	4a7070ef          	jal	ra,1900e <__sprint_r>
   1136c:	e929                	bnez	a0,113be <_vfprintf_r+0xb90>
   1136e:	6f22                	ld	t5,8(sp)
   11370:	7792                	ld	a5,288(sp)
   11372:	11812703          	lw	a4,280(sp)
   11376:	3f41                	addiw	t5,t5,-16
   11378:	835e                	mv	t1,s7
   1137a:	489d                	li	a7,7
   1137c:	fdedc6e3          	blt	s11,t5,11348 <_vfprintf_r+0xb1a>
   11380:	0017069b          	addiw	a3,a4,1
   11384:	97fa                	add	a5,a5,t5
   11386:	01333023          	sd	s3,0(t1)
   1138a:	01e33423          	sd	t5,8(t1)
   1138e:	f23e                	sd	a5,288(sp)
   11390:	10d12c23          	sw	a3,280(sp)
   11394:	471d                	li	a4,7
   11396:	0341                	addi	t1,t1,16
   11398:	ecd75e63          	bge	a4,a3,10a74 <_vfprintf_r+0x246>
   1139c:	0a10                	addi	a2,sp,272
   1139e:	85ca                	mv	a1,s2
   113a0:	8556                	mv	a0,s5
   113a2:	46d070ef          	jal	ra,1900e <__sprint_r>
   113a6:	ed01                	bnez	a0,113be <_vfprintf_r+0xb90>
   113a8:	7792                	ld	a5,288(sp)
   113aa:	835e                	mv	t1,s7
   113ac:	ec8ff06f          	j	10a74 <_vfprintf_r+0x246>
   113b0:	0a10                	addi	a2,sp,272
   113b2:	85ca                	mv	a1,s2
   113b4:	8556                	mv	a0,s5
   113b6:	459070ef          	jal	ra,1900e <__sprint_r>
   113ba:	f0050163          	beqz	a0,10abc <_vfprintf_r+0x28e>
   113be:	67e2                	ld	a5,24(sp)
   113c0:	f2078263          	beqz	a5,10ae4 <_vfprintf_r+0x2b6>
   113c4:	85be                	mv	a1,a5
   113c6:	8556                	mv	a0,s5
   113c8:	1b7010ef          	jal	ra,12d7e <_free_r>
   113cc:	0b092703          	lw	a4,176(s2)
   113d0:	01095783          	lhu	a5,16(s2)
   113d4:	8b05                	andi	a4,a4,1
   113d6:	f0071e63          	bnez	a4,10af2 <_vfprintf_r+0x2c4>
   113da:	b465                	j	10e82 <_vfprintf_r+0x654>
   113dc:	11812703          	lw	a4,280(sp)
   113e0:	0000c897          	auipc	a7,0xc
   113e4:	cc888893          	addi	a7,a7,-824 # 1d0a8 <blanks.1>
   113e8:	439d                	li	t2,7
   113ea:	00ddc663          	blt	s11,a3,113f6 <_vfprintf_r+0xbc8>
   113ee:	a881                	j	1143e <_vfprintf_r+0xc10>
   113f0:	36c1                	addiw	a3,a3,-16
   113f2:	04ddd663          	bge	s11,a3,1143e <_vfprintf_r+0xc10>
   113f6:	2705                	addiw	a4,a4,1
   113f8:	07c1                	addi	a5,a5,16
   113fa:	01133023          	sd	a7,0(t1)
   113fe:	01b33423          	sd	s11,8(t1)
   11402:	f23e                	sd	a5,288(sp)
   11404:	10e12c23          	sw	a4,280(sp)
   11408:	0341                	addi	t1,t1,16
   1140a:	fee3d3e3          	bge	t2,a4,113f0 <_vfprintf_r+0xbc2>
   1140e:	0a10                	addi	a2,sp,272
   11410:	85ca                	mv	a1,s2
   11412:	8556                	mv	a0,s5
   11414:	e4c6                	sd	a7,72(sp)
   11416:	e0fa                	sd	t5,64(sp)
   11418:	fc36                	sd	a3,56(sp)
   1141a:	f87e                	sd	t6,48(sp)
   1141c:	e416                	sd	t0,8(sp)
   1141e:	3f1070ef          	jal	ra,1900e <__sprint_r>
   11422:	fd51                	bnez	a0,113be <_vfprintf_r+0xb90>
   11424:	76e2                	ld	a3,56(sp)
   11426:	7792                	ld	a5,288(sp)
   11428:	11812703          	lw	a4,280(sp)
   1142c:	36c1                	addiw	a3,a3,-16
   1142e:	68a6                	ld	a7,72(sp)
   11430:	6f06                	ld	t5,64(sp)
   11432:	7fc2                	ld	t6,48(sp)
   11434:	62a2                	ld	t0,8(sp)
   11436:	835e                	mv	t1,s7
   11438:	439d                	li	t2,7
   1143a:	faddcee3          	blt	s11,a3,113f6 <_vfprintf_r+0xbc8>
   1143e:	2705                	addiw	a4,a4,1
   11440:	97b6                	add	a5,a5,a3
   11442:	00d33423          	sd	a3,8(t1)
   11446:	01133023          	sd	a7,0(t1)
   1144a:	86ba                	mv	a3,a4
   1144c:	10e12c23          	sw	a4,280(sp)
   11450:	f23e                	sd	a5,288(sp)
   11452:	471d                	li	a4,7
   11454:	0341                	addi	t1,t1,16
   11456:	dad75d63          	bge	a4,a3,10a10 <_vfprintf_r+0x1e2>
   1145a:	0a10                	addi	a2,sp,272
   1145c:	85ca                	mv	a1,s2
   1145e:	8556                	mv	a0,s5
   11460:	fc7a                	sd	t5,56(sp)
   11462:	f87e                	sd	t6,48(sp)
   11464:	e416                	sd	t0,8(sp)
   11466:	3a9070ef          	jal	ra,1900e <__sprint_r>
   1146a:	f931                	bnez	a0,113be <_vfprintf_r+0xb90>
   1146c:	7792                	ld	a5,288(sp)
   1146e:	7f62                	ld	t5,56(sp)
   11470:	7fc2                	ld	t6,48(sp)
   11472:	62a2                	ld	t0,8(sp)
   11474:	835e                	mv	t1,s7
   11476:	d9aff06f          	j	10a10 <_vfprintf_r+0x1e2>
   1147a:	8726                	mv	a4,s1
   1147c:	e836                	sd	a3,16(sp)
   1147e:	47a5                	li	a5,9
   11480:	4747e463          	bltu	a5,s4,118e8 <_vfprintf_r+0x10ba>
   11484:	030a0a1b          	addiw	s4,s4,48
   11488:	194105a3          	sb	s4,395(sp)
   1148c:	84ba                	mv	s1,a4
   1148e:	4c05                	li	s8,1
   11490:	18b10d13          	addi	s10,sp,395
   11494:	b4a1                	j	10edc <_vfprintf_r+0x6ae>
   11496:	0a10                	addi	a2,sp,272
   11498:	85ca                	mv	a1,s2
   1149a:	8556                	mv	a0,s5
   1149c:	f87a                	sd	t5,48(sp)
   1149e:	e47e                	sd	t6,8(sp)
   114a0:	36f070ef          	jal	ra,1900e <__sprint_r>
   114a4:	fd09                	bnez	a0,113be <_vfprintf_r+0xb90>
   114a6:	7792                	ld	a5,288(sp)
   114a8:	7f42                	ld	t5,48(sp)
   114aa:	6fa2                	ld	t6,8(sp)
   114ac:	835e                	mv	t1,s7
   114ae:	db6ff06f          	j	10a64 <_vfprintf_r+0x236>
   114b2:	11812703          	lw	a4,280(sp)
   114b6:	0000c897          	auipc	a7,0xc
   114ba:	bf288893          	addi	a7,a7,-1038 # 1d0a8 <blanks.1>
   114be:	4c1d                	li	s8,7
   114c0:	009dc663          	blt	s11,s1,114cc <_vfprintf_r+0xc9e>
   114c4:	a081                	j	11504 <_vfprintf_r+0xcd6>
   114c6:	34c1                	addiw	s1,s1,-16
   114c8:	029dde63          	bge	s11,s1,11504 <_vfprintf_r+0xcd6>
   114cc:	2705                	addiw	a4,a4,1
   114ce:	07c1                	addi	a5,a5,16
   114d0:	01133023          	sd	a7,0(t1)
   114d4:	01b33423          	sd	s11,8(t1)
   114d8:	f23e                	sd	a5,288(sp)
   114da:	10e12c23          	sw	a4,280(sp)
   114de:	0341                	addi	t1,t1,16
   114e0:	feec53e3          	bge	s8,a4,114c6 <_vfprintf_r+0xc98>
   114e4:	0a10                	addi	a2,sp,272
   114e6:	85ca                	mv	a1,s2
   114e8:	8556                	mv	a0,s5
   114ea:	e446                	sd	a7,8(sp)
   114ec:	323070ef          	jal	ra,1900e <__sprint_r>
   114f0:	ec0517e3          	bnez	a0,113be <_vfprintf_r+0xb90>
   114f4:	34c1                	addiw	s1,s1,-16
   114f6:	7792                	ld	a5,288(sp)
   114f8:	11812703          	lw	a4,280(sp)
   114fc:	68a2                	ld	a7,8(sp)
   114fe:	835e                	mv	t1,s7
   11500:	fc9dc6e3          	blt	s11,s1,114cc <_vfprintf_r+0xc9e>
   11504:	0017069b          	addiw	a3,a4,1
   11508:	97a6                	add	a5,a5,s1
   1150a:	01133023          	sd	a7,0(t1)
   1150e:	00933423          	sd	s1,8(t1)
   11512:	f23e                	sd	a5,288(sp)
   11514:	10d12c23          	sw	a3,280(sp)
   11518:	471d                	li	a4,7
   1151a:	d8d75863          	bge	a4,a3,10aaa <_vfprintf_r+0x27c>
   1151e:	0a10                	addi	a2,sp,272
   11520:	85ca                	mv	a1,s2
   11522:	8556                	mv	a0,s5
   11524:	2eb070ef          	jal	ra,1900e <__sprint_r>
   11528:	e8051be3          	bnez	a0,113be <_vfprintf_r+0xb90>
   1152c:	7792                	ld	a5,288(sp)
   1152e:	d7cff06f          	j	10aaa <_vfprintf_r+0x27c>
   11532:	562e                	lw	a2,232(sp)
   11534:	22c05663          	blez	a2,11760 <_vfprintf_r+0xf32>
   11538:	6766                	ld	a4,88(sp)
   1153a:	7682                	ld	a3,32(sp)
   1153c:	00070c1b          	sext.w	s8,a4
   11540:	00e6d463          	bge	a3,a4,11548 <_vfprintf_r+0xd1a>
   11544:	00068c1b          	sext.w	s8,a3
   11548:	03805263          	blez	s8,1156c <_vfprintf_r+0xd3e>
   1154c:	11812703          	lw	a4,280(sp)
   11550:	97e2                	add	a5,a5,s8
   11552:	01a33023          	sd	s10,0(t1)
   11556:	0017069b          	addiw	a3,a4,1
   1155a:	01833423          	sd	s8,8(t1)
   1155e:	f23e                	sd	a5,288(sp)
   11560:	10d12c23          	sw	a3,280(sp)
   11564:	471d                	li	a4,7
   11566:	0341                	addi	t1,t1,16
   11568:	22d740e3          	blt	a4,a3,11f88 <_vfprintf_r+0x175a>
   1156c:	fffc4713          	not	a4,s8
   11570:	977d                	srai	a4,a4,0x3f
   11572:	00ec7c33          	and	s8,s8,a4
   11576:	6766                	ld	a4,88(sp)
   11578:	41870c3b          	subw	s8,a4,s8
   1157c:	47804d63          	bgtz	s8,119f6 <_vfprintf_r+0x11c8>
   11580:	66e6                	ld	a3,88(sp)
   11582:	4004f713          	andi	a4,s1,1024
   11586:	00dd0c33          	add	s8,s10,a3
   1158a:	08071ee3          	bnez	a4,11e26 <_vfprintf_r+0x15f8>
   1158e:	572e                	lw	a4,232(sp)
   11590:	7682                	ld	a3,32(sp)
   11592:	00d74663          	blt	a4,a3,1159e <_vfprintf_r+0xd70>
   11596:	0014f693          	andi	a3,s1,1
   1159a:	5e068463          	beqz	a3,11b82 <_vfprintf_r+0x1354>
   1159e:	76e6                	ld	a3,120(sp)
   115a0:	7646                	ld	a2,112(sp)
   115a2:	0341                	addi	t1,t1,16
   115a4:	fed33823          	sd	a3,-16(t1)
   115a8:	11812683          	lw	a3,280(sp)
   115ac:	97b2                	add	a5,a5,a2
   115ae:	fec33c23          	sd	a2,-8(t1)
   115b2:	2685                	addiw	a3,a3,1
   115b4:	8636                	mv	a2,a3
   115b6:	10d12c23          	sw	a3,280(sp)
   115ba:	f23e                	sd	a5,288(sp)
   115bc:	469d                	li	a3,7
   115be:	1ec6cee3          	blt	a3,a2,11fba <_vfprintf_r+0x178c>
   115c2:	7682                	ld	a3,32(sp)
   115c4:	00dd0633          	add	a2,s10,a3
   115c8:	40e6873b          	subw	a4,a3,a4
   115cc:	4186063b          	subw	a2,a2,s8
   115d0:	86ba                	mv	a3,a4
   115d2:	00d65363          	bge	a2,a3,115d8 <_vfprintf_r+0xdaa>
   115d6:	8732                	mv	a4,a2
   115d8:	8cba                	mv	s9,a4
   115da:	02e05263          	blez	a4,115fe <_vfprintf_r+0xdd0>
   115de:	11812603          	lw	a2,280(sp)
   115e2:	97ba                	add	a5,a5,a4
   115e4:	01833023          	sd	s8,0(t1)
   115e8:	0016059b          	addiw	a1,a2,1
   115ec:	00e33423          	sd	a4,8(t1)
   115f0:	f23e                	sd	a5,288(sp)
   115f2:	10b12c23          	sw	a1,280(sp)
   115f6:	461d                	li	a2,7
   115f8:	0341                	addi	t1,t1,16
   115fa:	28b646e3          	blt	a2,a1,12086 <_vfprintf_r+0x1858>
   115fe:	fffccc13          	not	s8,s9
   11602:	43fc5c13          	srai	s8,s8,0x3f
   11606:	018cfc33          	and	s8,s9,s8
   1160a:	41868c3b          	subw	s8,a3,s8
   1160e:	c9805863          	blez	s8,10a9e <_vfprintf_r+0x270>
   11612:	11812703          	lw	a4,280(sp)
   11616:	398dd263          	bge	s11,s8,1199a <_vfprintf_r+0x116c>
   1161a:	4c9d                	li	s9,7
   1161c:	a021                	j	11624 <_vfprintf_r+0xdf6>
   1161e:	3c41                	addiw	s8,s8,-16
   11620:	378ddd63          	bge	s11,s8,1199a <_vfprintf_r+0x116c>
   11624:	2705                	addiw	a4,a4,1
   11626:	07c1                	addi	a5,a5,16
   11628:	01333023          	sd	s3,0(t1)
   1162c:	01b33423          	sd	s11,8(t1)
   11630:	f23e                	sd	a5,288(sp)
   11632:	10e12c23          	sw	a4,280(sp)
   11636:	0341                	addi	t1,t1,16
   11638:	feecd3e3          	bge	s9,a4,1161e <_vfprintf_r+0xdf0>
   1163c:	0a10                	addi	a2,sp,272
   1163e:	85ca                	mv	a1,s2
   11640:	8556                	mv	a0,s5
   11642:	1cd070ef          	jal	ra,1900e <__sprint_r>
   11646:	d6051ce3          	bnez	a0,113be <_vfprintf_r+0xb90>
   1164a:	7792                	ld	a5,288(sp)
   1164c:	11812703          	lw	a4,280(sp)
   11650:	835e                	mv	t1,s7
   11652:	b7f1                	j	1161e <_vfprintf_r+0xdf0>
   11654:	0014f593          	andi	a1,s1,1
   11658:	f8059563          	bnez	a1,10de2 <_vfprintf_r+0x5b4>
   1165c:	00c33423          	sd	a2,8(t1)
   11660:	f23e                	sd	a5,288(sp)
   11662:	11812c23          	sw	s8,280(sp)
   11666:	469d                	li	a3,7
   11668:	ff86d263          	bge	a3,s8,10e4c <_vfprintf_r+0x61e>
   1166c:	0a10                	addi	a2,sp,272
   1166e:	85ca                	mv	a1,s2
   11670:	8556                	mv	a0,s5
   11672:	19d070ef          	jal	ra,1900e <__sprint_r>
   11676:	d40514e3          	bnez	a0,113be <_vfprintf_r+0xb90>
   1167a:	7792                	ld	a5,288(sp)
   1167c:	11812c03          	lw	s8,280(sp)
   11680:	8cde                	mv	s9,s7
   11682:	fcaff06f          	j	10e4c <_vfprintf_r+0x61e>
   11686:	fcd05363          	blez	a3,10e4c <_vfprintf_r+0x61e>
   1168a:	42ddd663          	bge	s11,a3,11ab6 <_vfprintf_r+0x1288>
   1168e:	4d1d                	li	s10,7
   11690:	a021                	j	11698 <_vfprintf_r+0xe6a>
   11692:	36c1                	addiw	a3,a3,-16
   11694:	42ddd163          	bge	s11,a3,11ab6 <_vfprintf_r+0x1288>
   11698:	2c05                	addiw	s8,s8,1
   1169a:	07c1                	addi	a5,a5,16
   1169c:	013cb023          	sd	s3,0(s9)
   116a0:	01bcb423          	sd	s11,8(s9)
   116a4:	f23e                	sd	a5,288(sp)
   116a6:	11812c23          	sw	s8,280(sp)
   116aa:	0cc1                	addi	s9,s9,16
   116ac:	ff8d53e3          	bge	s10,s8,11692 <_vfprintf_r+0xe64>
   116b0:	0a10                	addi	a2,sp,272
   116b2:	85ca                	mv	a1,s2
   116b4:	8556                	mv	a0,s5
   116b6:	e436                	sd	a3,8(sp)
   116b8:	157070ef          	jal	ra,1900e <__sprint_r>
   116bc:	d00511e3          	bnez	a0,113be <_vfprintf_r+0xb90>
   116c0:	7792                	ld	a5,288(sp)
   116c2:	11812c03          	lw	s8,280(sp)
   116c6:	66a2                	ld	a3,8(sp)
   116c8:	8cde                	mv	s9,s7
   116ca:	b7e1                	j	11692 <_vfprintf_r+0xe64>
   116cc:	0104f793          	andi	a5,s1,16
   116d0:	efed                	bnez	a5,117ca <_vfprintf_r+0xf9c>
   116d2:	0404f793          	andi	a5,s1,64
   116d6:	40078e63          	beqz	a5,11af2 <_vfprintf_r+0x12c4>
   116da:	67c2                	ld	a5,16(sp)
   116dc:	00079a03          	lh	s4,0(a5)
   116e0:	87d2                	mv	a5,s4
   116e2:	fc07dd63          	bgez	a5,10ebc <_vfprintf_r+0x68e>
   116e6:	02d00793          	li	a5,45
   116ea:	0cf10fa3          	sb	a5,223(sp)
   116ee:	41400a33          	neg	s4,s4
   116f2:	e836                	sd	a3,16(sp)
   116f4:	8726                	mv	a4,s1
   116f6:	4785                	li	a5,1
   116f8:	b045                	j	10f98 <_vfprintf_r+0x76a>
   116fa:	01077793          	andi	a5,a4,16
   116fe:	e3e5                	bnez	a5,117de <_vfprintf_r+0xfb0>
   11700:	6642                	ld	a2,16(sp)
   11702:	04077793          	andi	a5,a4,64
   11706:	00062a03          	lw	s4,0(a2)
   1170a:	3c078563          	beqz	a5,11ad4 <_vfprintf_r+0x12a6>
   1170e:	1a42                	slli	s4,s4,0x30
   11710:	030a5a13          	srli	s4,s4,0x30
   11714:	e836                	sd	a3,16(sp)
   11716:	4785                	li	a5,1
   11718:	b8b5                	j	10f94 <_vfprintf_r+0x766>
   1171a:	0104f793          	andi	a5,s1,16
   1171e:	ebdd                	bnez	a5,117d4 <_vfprintf_r+0xfa6>
   11720:	6742                	ld	a4,16(sp)
   11722:	0404f793          	andi	a5,s1,64
   11726:	00072a03          	lw	s4,0(a4)
   1172a:	38078d63          	beqz	a5,11ac4 <_vfprintf_r+0x1296>
   1172e:	1a42                	slli	s4,s4,0x30
   11730:	030a5a13          	srli	s4,s4,0x30
   11734:	b899                	j	10f8a <_vfprintf_r+0x75c>
   11736:	0014f713          	andi	a4,s1,1
   1173a:	b6070263          	beqz	a4,10a9e <_vfprintf_r+0x270>
   1173e:	bcfd                	j	1123c <_vfprintf_r+0xa0e>
   11740:	0a093503          	ld	a0,160(s2)
   11744:	607030ef          	jal	ra,1554a <__retarget_lock_acquire_recursive>
   11748:	01091703          	lh	a4,16(s2)
   1174c:	03071793          	slli	a5,a4,0x30
   11750:	93c1                	srli	a5,a5,0x30
   11752:	956ff06f          	j	108a8 <_vfprintf_r+0x7a>
   11756:	00044e83          	lbu	t4,0(s0)
   1175a:	e866                	sd	s9,16(sp)
   1175c:	a1eff06f          	j	1097a <_vfprintf_r+0x14c>
   11760:	11812703          	lw	a4,280(sp)
   11764:	0000b697          	auipc	a3,0xb
   11768:	7cc68693          	addi	a3,a3,1996 # 1cf30 <__clzdi2+0x1b0>
   1176c:	00d33023          	sd	a3,0(t1)
   11770:	2705                	addiw	a4,a4,1
   11772:	4685                	li	a3,1
   11774:	0785                	addi	a5,a5,1
   11776:	00d33423          	sd	a3,8(t1)
   1177a:	10e12c23          	sw	a4,280(sp)
   1177e:	86ba                	mv	a3,a4
   11780:	f23e                	sd	a5,288(sp)
   11782:	471d                	li	a4,7
   11784:	0341                	addi	t1,t1,16
   11786:	3cd74c63          	blt	a4,a3,11b5e <_vfprintf_r+0x1330>
   1178a:	2a061763          	bnez	a2,11a38 <_vfprintf_r+0x120a>
   1178e:	7682                	ld	a3,32(sp)
   11790:	0014f713          	andi	a4,s1,1
   11794:	8f55                	or	a4,a4,a3
   11796:	b0070463          	beqz	a4,10a9e <_vfprintf_r+0x270>
   1179a:	76e6                	ld	a3,120(sp)
   1179c:	7746                	ld	a4,112(sp)
   1179e:	00d33023          	sd	a3,0(t1)
   117a2:	11812683          	lw	a3,280(sp)
   117a6:	97ba                	add	a5,a5,a4
   117a8:	00e33423          	sd	a4,8(t1)
   117ac:	2685                	addiw	a3,a3,1
   117ae:	8736                	mv	a4,a3
   117b0:	10d12c23          	sw	a3,280(sp)
   117b4:	f23e                	sd	a5,288(sp)
   117b6:	469d                	li	a3,7
   117b8:	42e6cf63          	blt	a3,a4,11bf6 <_vfprintf_r+0x13c8>
   117bc:	0341                	addi	t1,t1,16
   117be:	a44d                	j	11a60 <_vfprintf_r+0x1232>
   117c0:	6782                	ld	a5,0(sp)
   117c2:	8d22                	mv	s10,s0
   117c4:	e31c                	sd	a5,0(a4)
   117c6:	b0aff06f          	j	10ad0 <_vfprintf_r+0x2a2>
   117ca:	67c2                	ld	a5,16(sp)
   117cc:	639c                	ld	a5,0(a5)
   117ce:	8a3e                	mv	s4,a5
   117d0:	ee8ff06f          	j	10eb8 <_vfprintf_r+0x68a>
   117d4:	67c2                	ld	a5,16(sp)
   117d6:	0007ba03          	ld	s4,0(a5)
   117da:	fb0ff06f          	j	10f8a <_vfprintf_r+0x75c>
   117de:	67c2                	ld	a5,16(sp)
   117e0:	e836                	sd	a3,16(sp)
   117e2:	0007ba03          	ld	s4,0(a5)
   117e6:	4785                	li	a5,1
   117e8:	facff06f          	j	10f94 <_vfprintf_r+0x766>
   117ec:	67c2                	ld	a5,16(sp)
   117ee:	07bd                	addi	a5,a5,15
   117f0:	9bc1                	andi	a5,a5,-16
   117f2:	6398                	ld	a4,0(a5)
   117f4:	6794                	ld	a3,8(a5)
   117f6:	07c1                	addi	a5,a5,16
   117f8:	e83e                	sd	a5,16(sp)
   117fa:	e23a                	sd	a4,256(sp)
   117fc:	e636                	sd	a3,264(sp)
   117fe:	bcaff06f          	j	10bc8 <_vfprintf_r+0x39a>
   11802:	0000b797          	auipc	a5,0xb
   11806:	6f678793          	addi	a5,a5,1782 # 1cef8 <__clzdi2+0x178>
   1180a:	f43e                	sd	a5,40(sp)
   1180c:	6742                	ld	a4,16(sp)
   1180e:	0204f793          	andi	a5,s1,32
   11812:	00870693          	addi	a3,a4,8
   11816:	cbc1                	beqz	a5,118a6 <_vfprintf_r+0x1078>
   11818:	00073a03          	ld	s4,0(a4)
   1181c:	0014f793          	andi	a5,s1,1
   11820:	cf81                	beqz	a5,11838 <_vfprintf_r+0x100a>
   11822:	000a0b63          	beqz	s4,11838 <_vfprintf_r+0x100a>
   11826:	0024e493          	ori	s1,s1,2
   1182a:	03000793          	li	a5,48
   1182e:	0ef10023          	sb	a5,224(sp)
   11832:	0f9100a3          	sb	s9,225(sp)
   11836:	2481                	sext.w	s1,s1
   11838:	bff4f713          	andi	a4,s1,-1025
   1183c:	2701                	sext.w	a4,a4
   1183e:	e836                	sd	a3,16(sp)
   11840:	4789                	li	a5,2
   11842:	f52ff06f          	j	10f94 <_vfprintf_r+0x766>
   11846:	8726                	mv	a4,s1
   11848:	fb4ff06f          	j	10ffc <_vfprintf_r+0x7ce>
   1184c:	0000b797          	auipc	a5,0xb
   11850:	6c478793          	addi	a5,a5,1732 # 1cf10 <__clzdi2+0x190>
   11854:	f43e                	sd	a5,40(sp)
   11856:	bf5d                	j	1180c <_vfprintf_r+0xfde>
   11858:	0a10                	addi	a2,sp,272
   1185a:	85ca                	mv	a1,s2
   1185c:	8556                	mv	a0,s5
   1185e:	7b0070ef          	jal	ra,1900e <__sprint_r>
   11862:	b4051ee3          	bnez	a0,113be <_vfprintf_r+0xb90>
   11866:	7792                	ld	a5,288(sp)
   11868:	835e                	mv	t1,s7
   1186a:	badd                	j	11260 <_vfprintf_r+0xa32>
   1186c:	0204e493          	ori	s1,s1,32
   11870:	00144e83          	lbu	t4,1(s0)
   11874:	2481                	sext.w	s1,s1
   11876:	0405                	addi	s0,s0,1
   11878:	902ff06f          	j	1097a <_vfprintf_r+0x14c>
   1187c:	2004e493          	ori	s1,s1,512
   11880:	00144e83          	lbu	t4,1(s0)
   11884:	2481                	sext.w	s1,s1
   11886:	0405                	addi	s0,s0,1
   11888:	8f2ff06f          	j	1097a <_vfprintf_r+0x14c>
   1188c:	4799                	li	a5,6
   1188e:	000f0c1b          	sext.w	s8,t5
   11892:	2fe7e163          	bltu	a5,t5,11b74 <_vfprintf_r+0x1346>
   11896:	8a62                	mv	s4,s8
   11898:	e83a                	sd	a4,16(sp)
   1189a:	0000bd17          	auipc	s10,0xb
   1189e:	68ed0d13          	addi	s10,s10,1678 # 1cf28 <__clzdi2+0x1a8>
   118a2:	948ff06f          	j	109ea <_vfprintf_r+0x1bc>
   118a6:	0104f793          	andi	a5,s1,16
   118aa:	c3f9                	beqz	a5,11970 <_vfprintf_r+0x1142>
   118ac:	67c2                	ld	a5,16(sp)
   118ae:	0007ba03          	ld	s4,0(a5)
   118b2:	b7ad                	j	1181c <_vfprintf_r+0xfee>
   118b4:	0a10                	addi	a2,sp,272
   118b6:	85ca                	mv	a1,s2
   118b8:	8556                	mv	a0,s5
   118ba:	754070ef          	jal	ra,1900e <__sprint_r>
   118be:	b00510e3          	bnez	a0,113be <_vfprintf_r+0xb90>
   118c2:	7792                	ld	a5,288(sp)
   118c4:	11812c03          	lw	s8,280(sp)
   118c8:	8cde                	mv	s9,s7
   118ca:	d2aff06f          	j	10df4 <_vfprintf_r+0x5c6>
   118ce:	0a10                	addi	a2,sp,272
   118d0:	85ca                	mv	a1,s2
   118d2:	8556                	mv	a0,s5
   118d4:	73a070ef          	jal	ra,1900e <__sprint_r>
   118d8:	ae0513e3          	bnez	a0,113be <_vfprintf_r+0xb90>
   118dc:	7792                	ld	a5,288(sp)
   118de:	11812c03          	lw	s8,280(sp)
   118e2:	8cde                	mv	s9,s7
   118e4:	d2eff06f          	j	10e12 <_vfprintf_r+0x5e4>
   118e8:	18c10c13          	addi	s8,sp,396
   118ec:	40077793          	andi	a5,a4,1024
   118f0:	f002                	sd	zero,32(sp)
   118f2:	85e2                	mv	a1,s8
   118f4:	44a9                	li	s1,10
   118f6:	46a5                	li	a3,9
   118f8:	0ff00893          	li	a7,255
   118fc:	a039                	j	1190a <_vfprintf_r+0x10dc>
   118fe:	029a5633          	divu	a2,s4,s1
   11902:	8f46f0e3          	bgeu	a3,s4,111e2 <_vfprintf_r+0x9b4>
   11906:	8a32                	mv	s4,a2
   11908:	85ea                	mv	a1,s10
   1190a:	7502                	ld	a0,32(sp)
   1190c:	fff58d13          	addi	s10,a1,-1
   11910:	2505                	addiw	a0,a0,1
   11912:	f02a                	sd	a0,32(sp)
   11914:	029a7633          	remu	a2,s4,s1
   11918:	0306061b          	addiw	a2,a2,48
   1191c:	fec58fa3          	sb	a2,-1(a1)
   11920:	dff9                	beqz	a5,118fe <_vfprintf_r+0x10d0>
   11922:	7626                	ld	a2,104(sp)
   11924:	00064603          	lbu	a2,0(a2)
   11928:	fcc51be3          	bne	a0,a2,118fe <_vfprintf_r+0x10d0>
   1192c:	fd1609e3          	beq	a2,a7,118fe <_vfprintf_r+0x10d0>
   11930:	8b46f9e3          	bgeu	a3,s4,111e2 <_vfprintf_r+0x9b4>
   11934:	e43e                	sd	a5,8(sp)
   11936:	67aa                	ld	a5,136(sp)
   11938:	65ca                	ld	a1,144(sp)
   1193a:	fc1a                	sd	t1,56(sp)
   1193c:	40fd0d33          	sub	s10,s10,a5
   11940:	863e                	mv	a2,a5
   11942:	856a                	mv	a0,s10
   11944:	f87a                	sd	t5,48(sp)
   11946:	ec3a                	sd	a4,24(sp)
   11948:	2af050ef          	jal	ra,173f6 <strncpy>
   1194c:	77a6                	ld	a5,104(sp)
   1194e:	029a5633          	divu	a2,s4,s1
   11952:	6762                	ld	a4,24(sp)
   11954:	0017c583          	lbu	a1,1(a5)
   11958:	7f42                	ld	t5,48(sp)
   1195a:	7362                	ld	t1,56(sp)
   1195c:	00b035b3          	snez	a1,a1
   11960:	97ae                	add	a5,a5,a1
   11962:	f4be                	sd	a5,104(sp)
   11964:	f002                	sd	zero,32(sp)
   11966:	67a2                	ld	a5,8(sp)
   11968:	46a5                	li	a3,9
   1196a:	0ff00893          	li	a7,255
   1196e:	bf61                	j	11906 <_vfprintf_r+0x10d8>
   11970:	6742                	ld	a4,16(sp)
   11972:	0404f793          	andi	a5,s1,64
   11976:	00072a03          	lw	s4,0(a4)
   1197a:	16078663          	beqz	a5,11ae6 <_vfprintf_r+0x12b8>
   1197e:	1a42                	slli	s4,s4,0x30
   11980:	030a5a13          	srli	s4,s4,0x30
   11984:	bd61                	j	1181c <_vfprintf_r+0xfee>
   11986:	0a10                	addi	a2,sp,272
   11988:	85ca                	mv	a1,s2
   1198a:	8556                	mv	a0,s5
   1198c:	682070ef          	jal	ra,1900e <__sprint_r>
   11990:	a20517e3          	bnez	a0,113be <_vfprintf_r+0xb90>
   11994:	7792                	ld	a5,288(sp)
   11996:	835e                	mv	t1,s7
   11998:	b871                	j	11234 <_vfprintf_r+0xa06>
   1199a:	0017069b          	addiw	a3,a4,1
   1199e:	8736                	mv	a4,a3
   119a0:	97e2                	add	a5,a5,s8
   119a2:	01333023          	sd	s3,0(t1)
   119a6:	8e6ff06f          	j	10a8c <_vfprintf_r+0x25e>
   119aa:	6512                	ld	a0,256(sp)
   119ac:	65b2                	ld	a1,264(sp)
   119ae:	4601                	li	a2,0
   119b0:	4681                	li	a3,0
   119b2:	e41a                	sd	t1,8(sp)
   119b4:	12e0a0ef          	jal	ra,1bae2 <__letf2>
   119b8:	6322                	ld	t1,8(sp)
   119ba:	1a054f63          	bltz	a0,11b78 <_vfprintf_r+0x134a>
   119be:	0df14783          	lbu	a5,223(sp)
   119c2:	04700713          	li	a4,71
   119c6:	0000bd17          	auipc	s10,0xb
   119ca:	512d0d13          	addi	s10,s10,1298 # 1ced8 <__clzdi2+0x158>
   119ce:	01975663          	bge	a4,s9,119da <_vfprintf_r+0x11ac>
   119d2:	0000bd17          	auipc	s10,0xb
   119d6:	50ed0d13          	addi	s10,s10,1294 # 1cee0 <__clzdi2+0x160>
   119da:	f7f4f493          	andi	s1,s1,-129
   119de:	ec02                	sd	zero,24(sp)
   119e0:	e882                	sd	zero,80(sp)
   119e2:	f082                	sd	zero,96(sp)
   119e4:	ec82                	sd	zero,88(sp)
   119e6:	2481                	sext.w	s1,s1
   119e8:	4a0d                	li	s4,3
   119ea:	4c0d                	li	s8,3
   119ec:	4f01                	li	t5,0
   119ee:	d0079563          	bnez	a5,10ef8 <_vfprintf_r+0x6ca>
   119f2:	802ff06f          	j	109f4 <_vfprintf_r+0x1c6>
   119f6:	11812703          	lw	a4,280(sp)
   119fa:	138dd763          	bge	s11,s8,11b28 <_vfprintf_r+0x12fa>
   119fe:	4c9d                	li	s9,7
   11a00:	a021                	j	11a08 <_vfprintf_r+0x11da>
   11a02:	3c41                	addiw	s8,s8,-16
   11a04:	138dd263          	bge	s11,s8,11b28 <_vfprintf_r+0x12fa>
   11a08:	2705                	addiw	a4,a4,1
   11a0a:	07c1                	addi	a5,a5,16
   11a0c:	01333023          	sd	s3,0(t1)
   11a10:	01b33423          	sd	s11,8(t1)
   11a14:	f23e                	sd	a5,288(sp)
   11a16:	10e12c23          	sw	a4,280(sp)
   11a1a:	0341                	addi	t1,t1,16
   11a1c:	feecd3e3          	bge	s9,a4,11a02 <_vfprintf_r+0x11d4>
   11a20:	0a10                	addi	a2,sp,272
   11a22:	85ca                	mv	a1,s2
   11a24:	8556                	mv	a0,s5
   11a26:	5e8070ef          	jal	ra,1900e <__sprint_r>
   11a2a:	98051ae3          	bnez	a0,113be <_vfprintf_r+0xb90>
   11a2e:	7792                	ld	a5,288(sp)
   11a30:	11812703          	lw	a4,280(sp)
   11a34:	835e                	mv	t1,s7
   11a36:	b7f1                	j	11a02 <_vfprintf_r+0x11d4>
   11a38:	76e6                	ld	a3,120(sp)
   11a3a:	7746                	ld	a4,112(sp)
   11a3c:	0341                	addi	t1,t1,16
   11a3e:	fed33823          	sd	a3,-16(t1)
   11a42:	11812683          	lw	a3,280(sp)
   11a46:	97ba                	add	a5,a5,a4
   11a48:	fee33c23          	sd	a4,-8(t1)
   11a4c:	2685                	addiw	a3,a3,1
   11a4e:	8736                	mv	a4,a3
   11a50:	10d12c23          	sw	a3,280(sp)
   11a54:	f23e                	sd	a5,288(sp)
   11a56:	469d                	li	a3,7
   11a58:	18e6cf63          	blt	a3,a4,11bf6 <_vfprintf_r+0x13c8>
   11a5c:	68064b63          	bltz	a2,120f2 <_vfprintf_r+0x18c4>
   11a60:	7682                	ld	a3,32(sp)
   11a62:	2705                	addiw	a4,a4,1
   11a64:	10e12c23          	sw	a4,280(sp)
   11a68:	97b6                	add	a5,a5,a3
   11a6a:	00d33423          	sd	a3,8(t1)
   11a6e:	01a33023          	sd	s10,0(t1)
   11a72:	86ba                	mv	a3,a4
   11a74:	f23e                	sd	a5,288(sp)
   11a76:	471d                	li	a4,7
   11a78:	00d74463          	blt	a4,a3,11a80 <_vfprintf_r+0x1252>
   11a7c:	820ff06f          	j	10a9c <_vfprintf_r+0x26e>
   11a80:	beeff06f          	j	10e6e <_vfprintf_r+0x640>
   11a84:	856a                	mv	a0,s10
   11a86:	e41a                	sd	t1,8(sp)
   11a88:	e83a                	sd	a4,16(sp)
   11a8a:	d0ffe0ef          	jal	ra,10798 <strlen>
   11a8e:	00050c1b          	sext.w	s8,a0
   11a92:	0df14783          	lbu	a5,223(sp)
   11a96:	fffc4a13          	not	s4,s8
   11a9a:	43fa5a13          	srai	s4,s4,0x3f
   11a9e:	ec02                	sd	zero,24(sp)
   11aa0:	e882                	sd	zero,80(sp)
   11aa2:	f082                	sd	zero,96(sp)
   11aa4:	ec82                	sd	zero,88(sp)
   11aa6:	6322                	ld	t1,8(sp)
   11aa8:	018a7a33          	and	s4,s4,s8
   11aac:	4f01                	li	t5,0
   11aae:	c4079563          	bnez	a5,10ef8 <_vfprintf_r+0x6ca>
   11ab2:	f43fe06f          	j	109f4 <_vfprintf_r+0x1c6>
   11ab6:	2c05                	addiw	s8,s8,1
   11ab8:	8662                	mv	a2,s8
   11aba:	97b6                	add	a5,a5,a3
   11abc:	013cb023          	sd	s3,0(s9)
   11ac0:	b7aff06f          	j	10e3a <_vfprintf_r+0x60c>
   11ac4:	2004f793          	andi	a5,s1,512
   11ac8:	10078163          	beqz	a5,11bca <_vfprintf_r+0x139c>
   11acc:	0ffa7a13          	zext.b	s4,s4
   11ad0:	cbaff06f          	j	10f8a <_vfprintf_r+0x75c>
   11ad4:	20077793          	andi	a5,a4,512
   11ad8:	c3f5                	beqz	a5,11bbc <_vfprintf_r+0x138e>
   11ada:	0ffa7a13          	zext.b	s4,s4
   11ade:	e836                	sd	a3,16(sp)
   11ae0:	4785                	li	a5,1
   11ae2:	cb2ff06f          	j	10f94 <_vfprintf_r+0x766>
   11ae6:	2004f793          	andi	a5,s1,512
   11aea:	c7e9                	beqz	a5,11bb4 <_vfprintf_r+0x1386>
   11aec:	0ffa7a13          	zext.b	s4,s4
   11af0:	b335                	j	1181c <_vfprintf_r+0xfee>
   11af2:	2004f793          	andi	a5,s1,512
   11af6:	c3dd                	beqz	a5,11b9c <_vfprintf_r+0x136e>
   11af8:	67c2                	ld	a5,16(sp)
   11afa:	00078a03          	lb	s4,0(a5)
   11afe:	87d2                	mv	a5,s4
   11b00:	bb8ff06f          	j	10eb8 <_vfprintf_r+0x68a>
   11b04:	67b2                	ld	a5,264(sp)
   11b06:	0c07c763          	bltz	a5,11bd4 <_vfprintf_r+0x13a6>
   11b0a:	0df14783          	lbu	a5,223(sp)
   11b0e:	04700713          	li	a4,71
   11b12:	0000bd17          	auipc	s10,0xb
   11b16:	3d6d0d13          	addi	s10,s10,982 # 1cee8 <__clzdi2+0x168>
   11b1a:	ed9750e3          	bge	a4,s9,119da <_vfprintf_r+0x11ac>
   11b1e:	0000bd17          	auipc	s10,0xb
   11b22:	3d2d0d13          	addi	s10,s10,978 # 1cef0 <__clzdi2+0x170>
   11b26:	bd55                	j	119da <_vfprintf_r+0x11ac>
   11b28:	0017069b          	addiw	a3,a4,1
   11b2c:	97e2                	add	a5,a5,s8
   11b2e:	01333023          	sd	s3,0(t1)
   11b32:	01833423          	sd	s8,8(t1)
   11b36:	f23e                	sd	a5,288(sp)
   11b38:	10d12c23          	sw	a3,280(sp)
   11b3c:	471d                	li	a4,7
   11b3e:	0341                	addi	t1,t1,16
   11b40:	a4d750e3          	bge	a4,a3,11580 <_vfprintf_r+0xd52>
   11b44:	0a10                	addi	a2,sp,272
   11b46:	85ca                	mv	a1,s2
   11b48:	8556                	mv	a0,s5
   11b4a:	4c4070ef          	jal	ra,1900e <__sprint_r>
   11b4e:	860518e3          	bnez	a0,113be <_vfprintf_r+0xb90>
   11b52:	7792                	ld	a5,288(sp)
   11b54:	835e                	mv	t1,s7
   11b56:	b42d                	j	11580 <_vfprintf_r+0xd52>
   11b58:	8726                	mv	a4,s1
   11b5a:	e1aff06f          	j	11174 <_vfprintf_r+0x946>
   11b5e:	0a10                	addi	a2,sp,272
   11b60:	85ca                	mv	a1,s2
   11b62:	8556                	mv	a0,s5
   11b64:	4aa070ef          	jal	ra,1900e <__sprint_r>
   11b68:	84051be3          	bnez	a0,113be <_vfprintf_r+0xb90>
   11b6c:	562e                	lw	a2,232(sp)
   11b6e:	7792                	ld	a5,288(sp)
   11b70:	835e                	mv	t1,s7
   11b72:	b921                	j	1178a <_vfprintf_r+0xf5c>
   11b74:	4c19                	li	s8,6
   11b76:	b305                	j	11896 <_vfprintf_r+0x1068>
   11b78:	02d00793          	li	a5,45
   11b7c:	0cf10fa3          	sb	a5,223(sp)
   11b80:	b589                	j	119c2 <_vfprintf_r+0x1194>
   11b82:	7682                	ld	a3,32(sp)
   11b84:	00dd0833          	add	a6,s10,a3
   11b88:	40e6873b          	subw	a4,a3,a4
   11b8c:	41880ebb          	subw	t4,a6,s8
   11b90:	86ba                	mv	a3,a4
   11b92:	00ded363          	bge	t4,a3,11b98 <_vfprintf_r+0x136a>
   11b96:	8776                	mv	a4,t4
   11b98:	8cba                	mv	s9,a4
   11b9a:	b495                	j	115fe <_vfprintf_r+0xdd0>
   11b9c:	67c2                	ld	a5,16(sp)
   11b9e:	0007aa03          	lw	s4,0(a5)
   11ba2:	87d2                	mv	a5,s4
   11ba4:	b14ff06f          	j	10eb8 <_vfprintf_r+0x68a>
   11ba8:	6782                	ld	a5,0(sp)
   11baa:	8d22                	mv	s10,s0
   11bac:	00f71023          	sh	a5,0(a4)
   11bb0:	f21fe06f          	j	10ad0 <_vfprintf_r+0x2a2>
   11bb4:	1a02                	slli	s4,s4,0x20
   11bb6:	020a5a13          	srli	s4,s4,0x20
   11bba:	b18d                	j	1181c <_vfprintf_r+0xfee>
   11bbc:	1a02                	slli	s4,s4,0x20
   11bbe:	020a5a13          	srli	s4,s4,0x20
   11bc2:	e836                	sd	a3,16(sp)
   11bc4:	4785                	li	a5,1
   11bc6:	bceff06f          	j	10f94 <_vfprintf_r+0x766>
   11bca:	1a02                	slli	s4,s4,0x20
   11bcc:	020a5a13          	srli	s4,s4,0x20
   11bd0:	bbaff06f          	j	10f8a <_vfprintf_r+0x75c>
   11bd4:	02d00793          	li	a5,45
   11bd8:	0cf10fa3          	sb	a5,223(sp)
   11bdc:	bf0d                	j	11b0e <_vfprintf_r+0x12e0>
   11bde:	0a10                	addi	a2,sp,272
   11be0:	85ca                	mv	a1,s2
   11be2:	8556                	mv	a0,s5
   11be4:	42a070ef          	jal	ra,1900e <__sprint_r>
   11be8:	c119                	beqz	a0,11bee <_vfprintf_r+0x13c0>
   11bea:	efbfe06f          	j	10ae4 <_vfprintf_r+0x2b6>
   11bee:	10012c23          	sw	zero,280(sp)
   11bf2:	ef3fe06f          	j	10ae4 <_vfprintf_r+0x2b6>
   11bf6:	0a10                	addi	a2,sp,272
   11bf8:	85ca                	mv	a1,s2
   11bfa:	8556                	mv	a0,s5
   11bfc:	412070ef          	jal	ra,1900e <__sprint_r>
   11c00:	fa051f63          	bnez	a0,113be <_vfprintf_r+0xb90>
   11c04:	562e                	lw	a2,232(sp)
   11c06:	7792                	ld	a5,288(sp)
   11c08:	11812703          	lw	a4,280(sp)
   11c0c:	835e                	mv	t1,s7
   11c0e:	b5b9                	j	11a5c <_vfprintf_r+0x122e>
   11c10:	03000793          	li	a5,48
   11c14:	0ef10023          	sb	a5,224(sp)
   11c18:	05800713          	li	a4,88
   11c1c:	0024e793          	ori	a5,s1,2
   11c20:	2781                	sext.w	a5,a5
   11c22:	0ee100a3          	sb	a4,225(sp)
   11c26:	f13e                	sd	a5,160(sp)
   11c28:	06300713          	li	a4,99
   11c2c:	ec02                	sd	zero,24(sp)
   11c2e:	12810d13          	addi	s10,sp,296
   11c32:	55e74463          	blt	a4,t5,1217a <_vfprintf_r+0x194c>
   11c36:	6a32                	ld	s4,264(sp)
   11c38:	fdfcf793          	andi	a5,s9,-33
   11c3c:	1024e493          	ori	s1,s1,258
   11c40:	f0be                	sd	a5,96(sp)
   11c42:	e582                	sd	zero,200(sp)
   11c44:	6c12                	ld	s8,256(sp)
   11c46:	2481                	sext.w	s1,s1
   11c48:	320a4863          	bltz	s4,11f78 <_vfprintf_r+0x174a>
   11c4c:	06100793          	li	a5,97
   11c50:	68fc8063          	beq	s9,a5,122d0 <_vfprintf_r+0x1aa2>
   11c54:	04100793          	li	a5,65
   11c58:	00fc8463          	beq	s9,a5,11c60 <_vfprintf_r+0x1432>
   11c5c:	fd7fe06f          	j	10c32 <_vfprintf_r+0x404>
   11c60:	85d2                	mv	a1,s4
   11c62:	8562                	mv	a0,s8
   11c64:	fc1a                	sd	t1,56(sp)
   11c66:	f87a                	sd	t5,48(sp)
   11c68:	6ed0a0ef          	jal	ra,1cb54 <__trunctfdf2>
   11c6c:	11a8                	addi	a0,sp,232
   11c6e:	4d0050ef          	jal	ra,1713e <frexp>
   11c72:	6210a0ef          	jal	ra,1ca92 <__extenddftf2>
   11c76:	0000b797          	auipc	a5,0xb
   11c7a:	47a78793          	addi	a5,a5,1146 # 1d0f0 <zeroes.0+0x38>
   11c7e:	6390                	ld	a2,0(a5)
   11c80:	6794                	ld	a3,8(a5)
   11c82:	707090ef          	jal	ra,1bb88 <__multf3>
   11c86:	4601                	li	a2,0
   11c88:	4681                	li	a3,0
   11c8a:	f02a                	sd	a0,32(sp)
   11c8c:	e42e                	sd	a1,8(sp)
   11c8e:	51b090ef          	jal	ra,1b9a8 <__eqtf2>
   11c92:	62a2                	ld	t0,8(sp)
   11c94:	7702                	ld	a4,32(sp)
   11c96:	7f42                	ld	t5,48(sp)
   11c98:	7362                	ld	t1,56(sp)
   11c9a:	e119                	bnez	a0,11ca0 <_vfprintf_r+0x1472>
   11c9c:	4785                	li	a5,1
   11c9e:	d5be                	sw	a5,232(sp)
   11ca0:	0000b797          	auipc	a5,0xb
   11ca4:	27078793          	addi	a5,a5,624 # 1cf10 <__clzdi2+0x190>
   11ca8:	e8be                	sd	a5,80(sp)
   11caa:	020f1793          	slli	a5,t5,0x20
   11cae:	0000b697          	auipc	a3,0xb
   11cb2:	42268693          	addi	a3,a3,1058 # 1d0d0 <zeroes.0+0x18>
   11cb6:	9381                	srli	a5,a5,0x20
   11cb8:	6290                	ld	a2,0(a3)
   11cba:	0785                	addi	a5,a5,1
   11cbc:	6694                	ld	a3,8(a3)
   11cbe:	97ea                	add	a5,a5,s10
   11cc0:	ed3e                	sd	a5,152(sp)
   11cc2:	01ed07bb          	addw	a5,s10,t5
   11cc6:	fd32                	sd	a2,184(sp)
   11cc8:	e1b6                	sd	a3,192(sp)
   11cca:	8c6a                	mv	s8,s10
   11ccc:	db3e                	sw	a5,180(sp)
   11cce:	a831                	j	11cea <_vfprintf_r+0x14bc>
   11cd0:	4601                	li	a2,0
   11cd2:	4681                	li	a3,0
   11cd4:	e4ae                	sd	a1,72(sp)
   11cd6:	e0aa                	sd	a0,64(sp)
   11cd8:	4d1090ef          	jal	ra,1b9a8 <__eqtf2>
   11cdc:	6f86                	ld	t6,64(sp)
   11cde:	68a6                	ld	a7,72(sp)
   11ce0:	7f42                	ld	t5,48(sp)
   11ce2:	7362                	ld	t1,56(sp)
   11ce4:	82c6                	mv	t0,a7
   11ce6:	877e                	mv	a4,t6
   11ce8:	c135                	beqz	a0,11d4c <_vfprintf_r+0x151e>
   11cea:	766a                	ld	a2,184(sp)
   11cec:	668e                	ld	a3,192(sp)
   11cee:	853a                	mv	a0,a4
   11cf0:	8596                	mv	a1,t0
   11cf2:	fc1a                	sd	t1,56(sp)
   11cf4:	f87a                	sd	t5,48(sp)
   11cf6:	693090ef          	jal	ra,1bb88 <__multf3>
   11cfa:	e42e                	sd	a1,8(sp)
   11cfc:	f02a                	sd	a0,32(sp)
   11cfe:	4ad0a0ef          	jal	ra,1c9aa <__fixtfsi>
   11d02:	00050a1b          	sext.w	s4,a0
   11d06:	8552                	mv	a0,s4
   11d08:	5330a0ef          	jal	ra,1ca3a <__floatsitf>
   11d0c:	7882                	ld	a7,32(sp)
   11d0e:	6722                	ld	a4,8(sp)
   11d10:	862a                	mv	a2,a0
   11d12:	86ae                	mv	a3,a1
   11d14:	8546                	mv	a0,a7
   11d16:	85ba                	mv	a1,a4
   11d18:	4680a0ef          	jal	ra,1c180 <__subtf3>
   11d1c:	67c6                	ld	a5,80(sp)
   11d1e:	f562                	sd	s8,168(sp)
   11d20:	0c05                	addi	s8,s8,1
   11d22:	01478733          	add	a4,a5,s4
   11d26:	57da                	lw	a5,180(sp)
   11d28:	00074703          	lbu	a4,0(a4)
   11d2c:	f02a                	sd	a0,32(sp)
   11d2e:	418787bb          	subw	a5,a5,s8
   11d32:	ecbe                	sd	a5,88(sp)
   11d34:	67ea                	ld	a5,152(sp)
   11d36:	feec0fa3          	sb	a4,-1(s8)
   11d3a:	e42e                	sd	a1,8(sp)
   11d3c:	7f42                	ld	t5,48(sp)
   11d3e:	7362                	ld	t1,56(sp)
   11d40:	8faa                	mv	t6,a0
   11d42:	88ae                	mv	a7,a1
   11d44:	f98796e3          	bne	a5,s8,11cd0 <_vfprintf_r+0x14a2>
   11d48:	57fd                	li	a5,-1
   11d4a:	ecbe                	sd	a5,88(sp)
   11d4c:	0000b717          	auipc	a4,0xb
   11d50:	39470713          	addi	a4,a4,916 # 1d0e0 <zeroes.0+0x28>
   11d54:	6310                	ld	a2,0(a4)
   11d56:	6714                	ld	a3,8(a4)
   11d58:	857e                	mv	a0,t6
   11d5a:	85c6                	mv	a1,a7
   11d5c:	f01a                	sd	t1,32(sp)
   11d5e:	e47a                	sd	t5,8(sp)
   11d60:	e4fe                	sd	t6,72(sp)
   11d62:	e0b2                	sd	a2,64(sp)
   11d64:	fc36                	sd	a3,56(sp)
   11d66:	f846                	sd	a7,48(sp)
   11d68:	4d5090ef          	jal	ra,1ba3c <__getf2>
   11d6c:	6f22                	ld	t5,8(sp)
   11d6e:	7302                	ld	t1,32(sp)
   11d70:	44a04963          	bgtz	a0,121c2 <_vfprintf_r+0x1994>
   11d74:	6fa6                	ld	t6,72(sp)
   11d76:	78c2                	ld	a7,48(sp)
   11d78:	6606                	ld	a2,64(sp)
   11d7a:	76e2                	ld	a3,56(sp)
   11d7c:	857e                	mv	a0,t6
   11d7e:	85c6                	mv	a1,a7
   11d80:	429090ef          	jal	ra,1b9a8 <__eqtf2>
   11d84:	6f22                	ld	t5,8(sp)
   11d86:	7302                	ld	t1,32(sp)
   11d88:	e509                	bnez	a0,11d92 <_vfprintf_r+0x1564>
   11d8a:	001a7a13          	andi	s4,s4,1
   11d8e:	420a1a63          	bnez	s4,121c2 <_vfprintf_r+0x1994>
   11d92:	67e6                	ld	a5,88(sp)
   11d94:	03000693          	li	a3,48
   11d98:	0017871b          	addiw	a4,a5,1
   11d9c:	9762                	add	a4,a4,s8
   11d9e:	0007c763          	bltz	a5,11dac <_vfprintf_r+0x157e>
   11da2:	0c05                	addi	s8,s8,1
   11da4:	fedc0fa3          	sb	a3,-1(s8)
   11da8:	ff871de3          	bne	a4,s8,11da2 <_vfprintf_r+0x1574>
   11dac:	41ac07bb          	subw	a5,s8,s10
   11db0:	f03e                	sd	a5,32(sp)
   11db2:	eddfe06f          	j	10c8e <_vfprintf_r+0x460>
   11db6:	0a093503          	ld	a0,160(s2)
   11dba:	79c030ef          	jal	ra,15556 <__retarget_lock_release_recursive>
   11dbe:	dbdfe06f          	j	10b7a <_vfprintf_r+0x34c>
   11dc2:	6766                	ld	a4,88(sp)
   11dc4:	57f5                	li	a5,-3
   11dc6:	00f74463          	blt	a4,a5,11dce <_vfprintf_r+0x15a0>
   11dca:	00ef5863          	bge	t5,a4,11dda <_vfprintf_r+0x15ac>
   11dce:	3cf9                	addiw	s9,s9,-2
   11dd0:	fdfcf793          	andi	a5,s9,-33
   11dd4:	f0be                	sd	a5,96(sp)
   11dd6:	ed9fe06f          	j	10cae <_vfprintf_r+0x480>
   11dda:	7782                	ld	a5,32(sp)
   11ddc:	6766                	ld	a4,88(sp)
   11dde:	2cf74363          	blt	a4,a5,120a4 <_vfprintf_r+0x1876>
   11de2:	778a                	ld	a5,160(sp)
   11de4:	8c3a                	mv	s8,a4
   11de6:	8b85                	andi	a5,a5,1
   11de8:	c781                	beqz	a5,11df0 <_vfprintf_r+0x15c2>
   11dea:	77c6                	ld	a5,112(sp)
   11dec:	00e78c3b          	addw	s8,a5,a4
   11df0:	778a                	ld	a5,160(sp)
   11df2:	4007f793          	andi	a5,a5,1024
   11df6:	c781                	beqz	a5,11dfe <_vfprintf_r+0x15d0>
   11df8:	67e6                	ld	a5,88(sp)
   11dfa:	42f04c63          	bgtz	a5,12232 <_vfprintf_r+0x1a04>
   11dfe:	fffc4a13          	not	s4,s8
   11e02:	43fa5a13          	srai	s4,s4,0x3f
   11e06:	014c7a33          	and	s4,s8,s4
   11e0a:	2a01                	sext.w	s4,s4
   11e0c:	06700c93          	li	s9,103
   11e10:	e882                	sd	zero,80(sp)
   11e12:	f082                	sd	zero,96(sp)
   11e14:	f7dfe06f          	j	10d90 <_vfprintf_r+0x562>
   11e18:	0df14783          	lbu	a5,223(sp)
   11e1c:	4f01                	li	t5,0
   11e1e:	8c079d63          	bnez	a5,10ef8 <_vfprintf_r+0x6ca>
   11e22:	bd3fe06f          	j	109f4 <_vfprintf_r+0x1c6>
   11e26:	7702                	ld	a4,32(sp)
   11e28:	4c9d                	li	s9,7
   11e2a:	976a                	add	a4,a4,s10
   11e2c:	f83a                	sd	a4,48(sp)
   11e2e:	7706                	ld	a4,96(sp)
   11e30:	c749                	beqz	a4,11eba <_vfprintf_r+0x168c>
   11e32:	6746                	ld	a4,80(sp)
   11e34:	10071263          	bnez	a4,11f38 <_vfprintf_r+0x170a>
   11e38:	7726                	ld	a4,104(sp)
   11e3a:	177d                	addi	a4,a4,-1
   11e3c:	f4ba                	sd	a4,104(sp)
   11e3e:	7706                	ld	a4,96(sp)
   11e40:	377d                	addiw	a4,a4,-1
   11e42:	f0ba                	sd	a4,96(sp)
   11e44:	674a                	ld	a4,144(sp)
   11e46:	66aa                	ld	a3,136(sp)
   11e48:	0341                	addi	t1,t1,16
   11e4a:	fee33823          	sd	a4,-16(t1)
   11e4e:	11812703          	lw	a4,280(sp)
   11e52:	97b6                	add	a5,a5,a3
   11e54:	fed33c23          	sd	a3,-8(t1)
   11e58:	2705                	addiw	a4,a4,1
   11e5a:	f23e                	sd	a5,288(sp)
   11e5c:	86ba                	mv	a3,a4
   11e5e:	10e12c23          	sw	a4,280(sp)
   11e62:	0cdccf63          	blt	s9,a3,11f40 <_vfprintf_r+0x1712>
   11e66:	7726                	ld	a4,104(sp)
   11e68:	00074603          	lbu	a2,0(a4)
   11e6c:	7742                	ld	a4,48(sp)
   11e6e:	86b2                	mv	a3,a2
   11e70:	418705bb          	subw	a1,a4,s8
   11e74:	8732                	mv	a4,a2
   11e76:	00c5d363          	bge	a1,a2,11e7c <_vfprintf_r+0x164e>
   11e7a:	86ae                	mv	a3,a1
   11e7c:	02d05563          	blez	a3,11ea6 <_vfprintf_r+0x1678>
   11e80:	11812703          	lw	a4,280(sp)
   11e84:	97b6                	add	a5,a5,a3
   11e86:	01833023          	sd	s8,0(t1)
   11e8a:	0017061b          	addiw	a2,a4,1
   11e8e:	00d33423          	sd	a3,8(t1)
   11e92:	f23e                	sd	a5,288(sp)
   11e94:	10c12c23          	sw	a2,280(sp)
   11e98:	0accce63          	blt	s9,a2,11f54 <_vfprintf_r+0x1726>
   11e9c:	7726                	ld	a4,104(sp)
   11e9e:	0341                	addi	t1,t1,16
   11ea0:	00074603          	lbu	a2,0(a4)
   11ea4:	8732                	mv	a4,a2
   11ea6:	fff6c593          	not	a1,a3
   11eaa:	95fd                	srai	a1,a1,0x3f
   11eac:	8eed                	and	a3,a3,a1
   11eae:	9f15                	subw	a4,a4,a3
   11eb0:	00e04e63          	bgtz	a4,11ecc <_vfprintf_r+0x169e>
   11eb4:	9c32                	add	s8,s8,a2
   11eb6:	7706                	ld	a4,96(sp)
   11eb8:	ff2d                	bnez	a4,11e32 <_vfprintf_r+0x1604>
   11eba:	6746                	ld	a4,80(sp)
   11ebc:	ef35                	bnez	a4,11f38 <_vfprintf_r+0x170a>
   11ebe:	7702                	ld	a4,32(sp)
   11ec0:	976a                	add	a4,a4,s10
   11ec2:	ed877663          	bgeu	a4,s8,1158e <_vfprintf_r+0xd60>
   11ec6:	8c3a                	mv	s8,a4
   11ec8:	ec6ff06f          	j	1158e <_vfprintf_r+0xd60>
   11ecc:	11812683          	lw	a3,280(sp)
   11ed0:	00edc663          	blt	s11,a4,11edc <_vfprintf_r+0x16ae>
   11ed4:	a081                	j	11f14 <_vfprintf_r+0x16e6>
   11ed6:	3741                	addiw	a4,a4,-16
   11ed8:	02edde63          	bge	s11,a4,11f14 <_vfprintf_r+0x16e6>
   11edc:	2685                	addiw	a3,a3,1
   11ede:	07c1                	addi	a5,a5,16
   11ee0:	01333023          	sd	s3,0(t1)
   11ee4:	01b33423          	sd	s11,8(t1)
   11ee8:	f23e                	sd	a5,288(sp)
   11eea:	10d12c23          	sw	a3,280(sp)
   11eee:	0341                	addi	t1,t1,16
   11ef0:	fedcd3e3          	bge	s9,a3,11ed6 <_vfprintf_r+0x16a8>
   11ef4:	0a10                	addi	a2,sp,272
   11ef6:	85ca                	mv	a1,s2
   11ef8:	8556                	mv	a0,s5
   11efa:	e43a                	sd	a4,8(sp)
   11efc:	112070ef          	jal	ra,1900e <__sprint_r>
   11f00:	ca051f63          	bnez	a0,113be <_vfprintf_r+0xb90>
   11f04:	6722                	ld	a4,8(sp)
   11f06:	7792                	ld	a5,288(sp)
   11f08:	11812683          	lw	a3,280(sp)
   11f0c:	3741                	addiw	a4,a4,-16
   11f0e:	835e                	mv	t1,s7
   11f10:	fcedc6e3          	blt	s11,a4,11edc <_vfprintf_r+0x16ae>
   11f14:	2685                	addiw	a3,a3,1
   11f16:	97ba                	add	a5,a5,a4
   11f18:	00e33423          	sd	a4,8(t1)
   11f1c:	01333023          	sd	s3,0(t1)
   11f20:	f23e                	sd	a5,288(sp)
   11f22:	8736                	mv	a4,a3
   11f24:	10d12c23          	sw	a3,280(sp)
   11f28:	06eccb63          	blt	s9,a4,11f9e <_vfprintf_r+0x1770>
   11f2c:	7726                	ld	a4,104(sp)
   11f2e:	0341                	addi	t1,t1,16
   11f30:	00074603          	lbu	a2,0(a4)
   11f34:	9c32                	add	s8,s8,a2
   11f36:	b741                	j	11eb6 <_vfprintf_r+0x1688>
   11f38:	6746                	ld	a4,80(sp)
   11f3a:	377d                	addiw	a4,a4,-1
   11f3c:	e8ba                	sd	a4,80(sp)
   11f3e:	b719                	j	11e44 <_vfprintf_r+0x1616>
   11f40:	0a10                	addi	a2,sp,272
   11f42:	85ca                	mv	a1,s2
   11f44:	8556                	mv	a0,s5
   11f46:	0c8070ef          	jal	ra,1900e <__sprint_r>
   11f4a:	c6051a63          	bnez	a0,113be <_vfprintf_r+0xb90>
   11f4e:	7792                	ld	a5,288(sp)
   11f50:	835e                	mv	t1,s7
   11f52:	bf11                	j	11e66 <_vfprintf_r+0x1638>
   11f54:	0a10                	addi	a2,sp,272
   11f56:	85ca                	mv	a1,s2
   11f58:	8556                	mv	a0,s5
   11f5a:	e436                	sd	a3,8(sp)
   11f5c:	0b2070ef          	jal	ra,1900e <__sprint_r>
   11f60:	c4051f63          	bnez	a0,113be <_vfprintf_r+0xb90>
   11f64:	77a6                	ld	a5,104(sp)
   11f66:	66a2                	ld	a3,8(sp)
   11f68:	835e                	mv	t1,s7
   11f6a:	0007c603          	lbu	a2,0(a5)
   11f6e:	7792                	ld	a5,288(sp)
   11f70:	8732                	mv	a4,a2
   11f72:	bf15                	j	11ea6 <_vfprintf_r+0x1678>
   11f74:	ec02                	sd	zero,24(sp)
   11f76:	84be                	mv	s1,a5
   11f78:	57fd                	li	a5,-1
   11f7a:	17fe                	slli	a5,a5,0x3f
   11f7c:	00fa4a33          	xor	s4,s4,a5
   11f80:	02d00793          	li	a5,45
   11f84:	e5be                	sd	a5,200(sp)
   11f86:	b1d9                	j	11c4c <_vfprintf_r+0x141e>
   11f88:	0a10                	addi	a2,sp,272
   11f8a:	85ca                	mv	a1,s2
   11f8c:	8556                	mv	a0,s5
   11f8e:	080070ef          	jal	ra,1900e <__sprint_r>
   11f92:	c2051663          	bnez	a0,113be <_vfprintf_r+0xb90>
   11f96:	7792                	ld	a5,288(sp)
   11f98:	835e                	mv	t1,s7
   11f9a:	dd2ff06f          	j	1156c <_vfprintf_r+0xd3e>
   11f9e:	0a10                	addi	a2,sp,272
   11fa0:	85ca                	mv	a1,s2
   11fa2:	8556                	mv	a0,s5
   11fa4:	06a070ef          	jal	ra,1900e <__sprint_r>
   11fa8:	c0051b63          	bnez	a0,113be <_vfprintf_r+0xb90>
   11fac:	77a6                	ld	a5,104(sp)
   11fae:	835e                	mv	t1,s7
   11fb0:	0007c603          	lbu	a2,0(a5)
   11fb4:	7792                	ld	a5,288(sp)
   11fb6:	9c32                	add	s8,s8,a2
   11fb8:	bdfd                	j	11eb6 <_vfprintf_r+0x1688>
   11fba:	0a10                	addi	a2,sp,272
   11fbc:	85ca                	mv	a1,s2
   11fbe:	8556                	mv	a0,s5
   11fc0:	04e070ef          	jal	ra,1900e <__sprint_r>
   11fc4:	be051d63          	bnez	a0,113be <_vfprintf_r+0xb90>
   11fc8:	572e                	lw	a4,232(sp)
   11fca:	7792                	ld	a5,288(sp)
   11fcc:	835e                	mv	t1,s7
   11fce:	df4ff06f          	j	115c2 <_vfprintf_r+0xd94>
   11fd2:	877a                	mv	a4,t5
   11fd4:	11bc                	addi	a5,sp,232
   11fd6:	0f810893          	addi	a7,sp,248
   11fda:	0ec10813          	addi	a6,sp,236
   11fde:	468d                	li	a3,3
   11fe0:	85e2                	mv	a1,s8
   11fe2:	8652                	mv	a2,s4
   11fe4:	8556                	mv	a0,s5
   11fe6:	f01a                	sd	t1,32(sp)
   11fe8:	e47a                	sd	t5,8(sp)
   11fea:	68c020ef          	jal	ra,14676 <_ldtoa_r>
   11fee:	00054703          	lbu	a4,0(a0)
   11ff2:	03000793          	li	a5,48
   11ff6:	6f22                	ld	t5,8(sp)
   11ff8:	7302                	ld	t1,32(sp)
   11ffa:	8d2a                	mv	s10,a0
   11ffc:	04f70763          	beq	a4,a5,1204a <_vfprintf_r+0x181c>
   12000:	57ae                	lw	a5,232(sp)
   12002:	97fa                	add	a5,a5,t5
   12004:	00fd0733          	add	a4,s10,a5
   12008:	4601                	li	a2,0
   1200a:	4681                	li	a3,0
   1200c:	8562                	mv	a0,s8
   1200e:	85d2                	mv	a1,s4
   12010:	f83a                	sd	a4,48(sp)
   12012:	f01a                	sd	t1,32(sp)
   12014:	e47a                	sd	t5,8(sp)
   12016:	193090ef          	jal	ra,1b9a8 <__eqtf2>
   1201a:	7742                	ld	a4,48(sp)
   1201c:	6f22                	ld	t5,8(sp)
   1201e:	7302                	ld	t1,32(sp)
   12020:	87ba                	mv	a5,a4
   12022:	e119                	bnez	a0,12028 <_vfprintf_r+0x17fa>
   12024:	c65fe06f          	j	10c88 <_vfprintf_r+0x45a>
   12028:	77ee                	ld	a5,248(sp)
   1202a:	00e7e463          	bltu	a5,a4,12032 <_vfprintf_r+0x1804>
   1202e:	c5bfe06f          	j	10c88 <_vfprintf_r+0x45a>
   12032:	03000613          	li	a2,48
   12036:	00178693          	addi	a3,a5,1
   1203a:	fdb6                	sd	a3,248(sp)
   1203c:	00c78023          	sb	a2,0(a5)
   12040:	77ee                	ld	a5,248(sp)
   12042:	fee7eae3          	bltu	a5,a4,12036 <_vfprintf_r+0x1808>
   12046:	c43fe06f          	j	10c88 <_vfprintf_r+0x45a>
   1204a:	4601                	li	a2,0
   1204c:	4681                	li	a3,0
   1204e:	8562                	mv	a0,s8
   12050:	85d2                	mv	a1,s4
   12052:	f01a                	sd	t1,32(sp)
   12054:	e47a                	sd	t5,8(sp)
   12056:	153090ef          	jal	ra,1b9a8 <__eqtf2>
   1205a:	6f22                	ld	t5,8(sp)
   1205c:	7302                	ld	t1,32(sp)
   1205e:	d14d                	beqz	a0,12000 <_vfprintf_r+0x17d2>
   12060:	4705                	li	a4,1
   12062:	41e707bb          	subw	a5,a4,t5
   12066:	d5be                	sw	a5,232(sp)
   12068:	bf69                	j	12002 <_vfprintf_r+0x17d4>
   1206a:	0df14783          	lbu	a5,223(sp)
   1206e:	e83a                	sd	a4,16(sp)
   12070:	e882                	sd	zero,80(sp)
   12072:	f082                	sd	zero,96(sp)
   12074:	ec82                	sd	zero,88(sp)
   12076:	8a7a                	mv	s4,t5
   12078:	8c7a                	mv	s8,t5
   1207a:	4f01                	li	t5,0
   1207c:	c399                	beqz	a5,12082 <_vfprintf_r+0x1854>
   1207e:	e7bfe06f          	j	10ef8 <_vfprintf_r+0x6ca>
   12082:	973fe06f          	j	109f4 <_vfprintf_r+0x1c6>
   12086:	0a10                	addi	a2,sp,272
   12088:	85ca                	mv	a1,s2
   1208a:	8556                	mv	a0,s5
   1208c:	783060ef          	jal	ra,1900e <__sprint_r>
   12090:	b2051763          	bnez	a0,113be <_vfprintf_r+0xb90>
   12094:	56ae                	lw	a3,232(sp)
   12096:	7702                	ld	a4,32(sp)
   12098:	7792                	ld	a5,288(sp)
   1209a:	835e                	mv	t1,s7
   1209c:	40d706bb          	subw	a3,a4,a3
   120a0:	d5eff06f          	j	115fe <_vfprintf_r+0xdd0>
   120a4:	7702                	ld	a4,32(sp)
   120a6:	77c6                	ld	a5,112(sp)
   120a8:	06700c93          	li	s9,103
   120ac:	00e78c3b          	addw	s8,a5,a4
   120b0:	6766                	ld	a4,88(sp)
   120b2:	28e05463          	blez	a4,1233a <_vfprintf_r+0x1b0c>
   120b6:	778a                	ld	a5,160(sp)
   120b8:	4007f793          	andi	a5,a5,1024
   120bc:	16079d63          	bnez	a5,12236 <_vfprintf_r+0x1a08>
   120c0:	fffc4a13          	not	s4,s8
   120c4:	43fa5a13          	srai	s4,s4,0x3f
   120c8:	014c7a33          	and	s4,s8,s4
   120cc:	2a01                	sext.w	s4,s4
   120ce:	b389                	j	11e10 <_vfprintf_r+0x15e2>
   120d0:	778a                	ld	a5,160(sp)
   120d2:	6766                	ld	a4,88(sp)
   120d4:	8b85                	andi	a5,a5,1
   120d6:	00ff67b3          	or	a5,t5,a5
   120da:	26e05d63          	blez	a4,12354 <_vfprintf_r+0x1b26>
   120de:	22079f63          	bnez	a5,1231c <_vfprintf_r+0x1aee>
   120e2:	6c66                	ld	s8,88(sp)
   120e4:	06600c93          	li	s9,102
   120e8:	b7f9                	j	120b6 <_vfprintf_r+0x1888>
   120ea:	57fd                	li	a5,-1
   120ec:	e03e                	sd	a5,0(sp)
   120ee:	a0ffe06f          	j	10afc <_vfprintf_r+0x2ce>
   120f2:	56c1                	li	a3,-16
   120f4:	40c00c3b          	negw	s8,a2
   120f8:	02d65f63          	bge	a2,a3,12136 <_vfprintf_r+0x1908>
   120fc:	4c9d                	li	s9,7
   120fe:	a021                	j	12106 <_vfprintf_r+0x18d8>
   12100:	3c41                	addiw	s8,s8,-16
   12102:	038dda63          	bge	s11,s8,12136 <_vfprintf_r+0x1908>
   12106:	2705                	addiw	a4,a4,1
   12108:	07c1                	addi	a5,a5,16
   1210a:	01333023          	sd	s3,0(t1)
   1210e:	01b33423          	sd	s11,8(t1)
   12112:	f23e                	sd	a5,288(sp)
   12114:	10e12c23          	sw	a4,280(sp)
   12118:	0341                	addi	t1,t1,16
   1211a:	feecd3e3          	bge	s9,a4,12100 <_vfprintf_r+0x18d2>
   1211e:	0a10                	addi	a2,sp,272
   12120:	85ca                	mv	a1,s2
   12122:	8556                	mv	a0,s5
   12124:	6eb060ef          	jal	ra,1900e <__sprint_r>
   12128:	a8051b63          	bnez	a0,113be <_vfprintf_r+0xb90>
   1212c:	7792                	ld	a5,288(sp)
   1212e:	11812703          	lw	a4,280(sp)
   12132:	835e                	mv	t1,s7
   12134:	b7f1                	j	12100 <_vfprintf_r+0x18d2>
   12136:	2705                	addiw	a4,a4,1
   12138:	97e2                	add	a5,a5,s8
   1213a:	01333023          	sd	s3,0(t1)
   1213e:	01833423          	sd	s8,8(t1)
   12142:	f23e                	sd	a5,288(sp)
   12144:	10e12c23          	sw	a4,280(sp)
   12148:	469d                	li	a3,7
   1214a:	e6e6d963          	bge	a3,a4,117bc <_vfprintf_r+0xf8e>
   1214e:	0a10                	addi	a2,sp,272
   12150:	85ca                	mv	a1,s2
   12152:	8556                	mv	a0,s5
   12154:	6bb060ef          	jal	ra,1900e <__sprint_r>
   12158:	a6051363          	bnez	a0,113be <_vfprintf_r+0xb90>
   1215c:	7792                	ld	a5,288(sp)
   1215e:	11812703          	lw	a4,280(sp)
   12162:	835e                	mv	t1,s7
   12164:	b8f5                	j	11a60 <_vfprintf_r+0x1232>
   12166:	8726                	mv	a4,s1
   12168:	b1cff06f          	j	11484 <_vfprintf_r+0xc56>
   1216c:	03000793          	li	a5,48
   12170:	0ef10023          	sb	a5,224(sp)
   12174:	07800713          	li	a4,120
   12178:	b455                	j	11c1c <_vfprintf_r+0x13ee>
   1217a:	001f059b          	addiw	a1,t5,1
   1217e:	8556                	mv	a0,s5
   12180:	ec1a                	sd	t1,24(sp)
   12182:	e47a                	sd	t5,8(sp)
   12184:	56c030ef          	jal	ra,156f0 <_malloc_r>
   12188:	6f22                	ld	t5,8(sp)
   1218a:	6362                	ld	t1,24(sp)
   1218c:	8d2a                	mv	s10,a0
   1218e:	22050f63          	beqz	a0,123cc <_vfprintf_r+0x1b9e>
   12192:	ec2a                	sd	a0,24(sp)
   12194:	b44d                	j	11c36 <_vfprintf_r+0x1408>
   12196:	001f071b          	addiw	a4,t5,1
   1219a:	0f810893          	addi	a7,sp,248
   1219e:	0ec10813          	addi	a6,sp,236
   121a2:	11bc                	addi	a5,sp,232
   121a4:	4689                	li	a3,2
   121a6:	85e2                	mv	a1,s8
   121a8:	8652                	mv	a2,s4
   121aa:	8556                	mv	a0,s5
   121ac:	f81a                	sd	t1,48(sp)
   121ae:	f07a                	sd	t5,32(sp)
   121b0:	e43a                	sd	a4,8(sp)
   121b2:	4c4020ef          	jal	ra,14676 <_ldtoa_r>
   121b6:	6722                	ld	a4,8(sp)
   121b8:	8d2a                	mv	s10,a0
   121ba:	7f02                	ld	t5,32(sp)
   121bc:	7342                	ld	t1,48(sp)
   121be:	976a                	add	a4,a4,s10
   121c0:	b5a1                	j	12008 <_vfprintf_r+0x17da>
   121c2:	77aa                	ld	a5,168(sp)
   121c4:	8762                	mv	a4,s8
   121c6:	fdbe                	sd	a5,248(sp)
   121c8:	67c6                	ld	a5,80(sp)
   121ca:	fffc4683          	lbu	a3,-1(s8)
   121ce:	00f7c603          	lbu	a2,15(a5)
   121d2:	00d61e63          	bne	a2,a3,121ee <_vfprintf_r+0x19c0>
   121d6:	03000593          	li	a1,48
   121da:	feb70fa3          	sb	a1,-1(a4)
   121de:	776e                	ld	a4,248(sp)
   121e0:	fff70693          	addi	a3,a4,-1
   121e4:	fdb6                	sd	a3,248(sp)
   121e6:	fff74683          	lbu	a3,-1(a4)
   121ea:	fed608e3          	beq	a2,a3,121da <_vfprintf_r+0x19ac>
   121ee:	0016861b          	addiw	a2,a3,1
   121f2:	03900593          	li	a1,57
   121f6:	0ff67613          	zext.b	a2,a2
   121fa:	00b68563          	beq	a3,a1,12204 <_vfprintf_r+0x19d6>
   121fe:	fec70fa3          	sb	a2,-1(a4)
   12202:	b66d                	j	11dac <_vfprintf_r+0x157e>
   12204:	67c6                	ld	a5,80(sp)
   12206:	00a7c603          	lbu	a2,10(a5)
   1220a:	fec70fa3          	sb	a2,-1(a4)
   1220e:	be79                	j	11dac <_vfprintf_r+0x157e>
   12210:	01ed0733          	add	a4,s10,t5
   12214:	bbd5                	j	12008 <_vfprintf_r+0x17da>
   12216:	c31c                	sw	a5,0(a4)
   12218:	8d22                	mv	s10,s0
   1221a:	8b7fe06f          	j	10ad0 <_vfprintf_r+0x2a2>
   1221e:	000f0463          	beqz	t5,12226 <_vfprintf_r+0x19f8>
   12222:	9f7fe06f          	j	10c18 <_vfprintf_r+0x3ea>
   12226:	4f05                	li	t5,1
   12228:	9f1fe06f          	j	10c18 <_vfprintf_r+0x3ea>
   1222c:	4f19                	li	t5,6
   1222e:	9ebfe06f          	j	10c18 <_vfprintf_r+0x3ea>
   12232:	06700c93          	li	s9,103
   12236:	77a6                	ld	a5,104(sp)
   12238:	0ff00713          	li	a4,255
   1223c:	e882                	sd	zero,80(sp)
   1223e:	0007c783          	lbu	a5,0(a5)
   12242:	f082                	sd	zero,96(sp)
   12244:	02e78763          	beq	a5,a4,12272 <_vfprintf_r+0x1a44>
   12248:	0ff00693          	li	a3,255
   1224c:	6666                	ld	a2,88(sp)
   1224e:	873e                	mv	a4,a5
   12250:	02c7d163          	bge	a5,a2,12272 <_vfprintf_r+0x1a44>
   12254:	75a6                	ld	a1,104(sp)
   12256:	40e6073b          	subw	a4,a2,a4
   1225a:	ecba                	sd	a4,88(sp)
   1225c:	0015c783          	lbu	a5,1(a1)
   12260:	cf85                	beqz	a5,12298 <_vfprintf_r+0x1a6a>
   12262:	7706                	ld	a4,96(sp)
   12264:	2705                	addiw	a4,a4,1
   12266:	f0ba                	sd	a4,96(sp)
   12268:	00158713          	addi	a4,a1,1
   1226c:	f4ba                	sd	a4,104(sp)
   1226e:	fcd79fe3          	bne	a5,a3,1224c <_vfprintf_r+0x1a1e>
   12272:	7706                	ld	a4,96(sp)
   12274:	67c6                	ld	a5,80(sp)
   12276:	9fb9                	addw	a5,a5,a4
   12278:	672a                	ld	a4,136(sp)
   1227a:	02e787bb          	mulw	a5,a5,a4
   1227e:	018787bb          	addw	a5,a5,s8
   12282:	8c3e                	mv	s8,a5
   12284:	fffc4a13          	not	s4,s8
   12288:	43fa5a13          	srai	s4,s4,0x3f
   1228c:	0147f7b3          	and	a5,a5,s4
   12290:	00078a1b          	sext.w	s4,a5
   12294:	afdfe06f          	j	10d90 <_vfprintf_r+0x562>
   12298:	6746                	ld	a4,80(sp)
   1229a:	77a6                	ld	a5,104(sp)
   1229c:	2705                	addiw	a4,a4,1
   1229e:	0007c783          	lbu	a5,0(a5)
   122a2:	e8ba                	sd	a4,80(sp)
   122a4:	b7e9                	j	1226e <_vfprintf_r+0x1a40>
   122a6:	0f210713          	addi	a4,sp,242
   122aa:	e699                	bnez	a3,122b8 <_vfprintf_r+0x1a8a>
   122ac:	03000713          	li	a4,48
   122b0:	0ee10923          	sb	a4,242(sp)
   122b4:	0f310713          	addi	a4,sp,243
   122b8:	0c14                	addi	a3,sp,528
   122ba:	0307879b          	addiw	a5,a5,48
   122be:	40d706b3          	sub	a3,a4,a3
   122c2:	00f70023          	sb	a5,0(a4)
   122c6:	1216879b          	addiw	a5,a3,289
   122ca:	e13e                	sd	a5,128(sp)
   122cc:	a8bfe06f          	j	10d56 <_vfprintf_r+0x528>
   122d0:	85d2                	mv	a1,s4
   122d2:	8562                	mv	a0,s8
   122d4:	fc1a                	sd	t1,56(sp)
   122d6:	f87a                	sd	t5,48(sp)
   122d8:	07d0a0ef          	jal	ra,1cb54 <__trunctfdf2>
   122dc:	11a8                	addi	a0,sp,232
   122de:	661040ef          	jal	ra,1713e <frexp>
   122e2:	7b00a0ef          	jal	ra,1ca92 <__extenddftf2>
   122e6:	0000b797          	auipc	a5,0xb
   122ea:	e0a78793          	addi	a5,a5,-502 # 1d0f0 <zeroes.0+0x38>
   122ee:	6390                	ld	a2,0(a5)
   122f0:	6794                	ld	a3,8(a5)
   122f2:	097090ef          	jal	ra,1bb88 <__multf3>
   122f6:	4601                	li	a2,0
   122f8:	4681                	li	a3,0
   122fa:	f02a                	sd	a0,32(sp)
   122fc:	e42e                	sd	a1,8(sp)
   122fe:	6aa090ef          	jal	ra,1b9a8 <__eqtf2>
   12302:	62a2                	ld	t0,8(sp)
   12304:	7702                	ld	a4,32(sp)
   12306:	7f42                	ld	t5,48(sp)
   12308:	7362                	ld	t1,56(sp)
   1230a:	e119                	bnez	a0,12310 <_vfprintf_r+0x1ae2>
   1230c:	4785                	li	a5,1
   1230e:	d5be                	sw	a5,232(sp)
   12310:	0000b797          	auipc	a5,0xb
   12314:	be878793          	addi	a5,a5,-1048 # 1cef8 <__clzdi2+0x178>
   12318:	e8be                	sd	a5,80(sp)
   1231a:	ba41                	j	11caa <_vfprintf_r+0x147c>
   1231c:	77c6                	ld	a5,112(sp)
   1231e:	06600c93          	li	s9,102
   12322:	00e78c3b          	addw	s8,a5,a4
   12326:	01ec0c3b          	addw	s8,s8,t5
   1232a:	b371                	j	120b6 <_vfprintf_r+0x1888>
   1232c:	770a                	ld	a4,160(sp)
   1232e:	8b05                	andi	a4,a4,1
   12330:	e319                	bnez	a4,12336 <_vfprintf_r+0x1b08>
   12332:	a3ffe06f          	j	10d70 <_vfprintf_r+0x542>
   12336:	a35fe06f          	j	10d6a <_vfprintf_r+0x53c>
   1233a:	40ec07bb          	subw	a5,s8,a4
   1233e:	2785                	addiw	a5,a5,1
   12340:	8c3e                	mv	s8,a5
   12342:	fffc4a13          	not	s4,s8
   12346:	43fa5a13          	srai	s4,s4,0x3f
   1234a:	0147f7b3          	and	a5,a5,s4
   1234e:	00078a1b          	sext.w	s4,a5
   12352:	bc7d                	j	11e10 <_vfprintf_r+0x15e2>
   12354:	e791                	bnez	a5,12360 <_vfprintf_r+0x1b32>
   12356:	4a05                	li	s4,1
   12358:	06600c93          	li	s9,102
   1235c:	4c05                	li	s8,1
   1235e:	bc4d                	j	11e10 <_vfprintf_r+0x15e2>
   12360:	77c6                	ld	a5,112(sp)
   12362:	06600c93          	li	s9,102
   12366:	0017869b          	addiw	a3,a5,1
   1236a:	01e686bb          	addw	a3,a3,t5
   1236e:	8c36                	mv	s8,a3
   12370:	fffc4a13          	not	s4,s8
   12374:	43fa5a13          	srai	s4,s4,0x3f
   12378:	0146f6b3          	and	a3,a3,s4
   1237c:	00068a1b          	sext.w	s4,a3
   12380:	bc41                	j	11e10 <_vfprintf_r+0x15e2>
   12382:	0b092783          	lw	a5,176(s2)
   12386:	8b85                	andi	a5,a5,1
   12388:	d60791e3          	bnez	a5,120ea <_vfprintf_r+0x18bc>
   1238c:	01095783          	lhu	a5,16(s2)
   12390:	2007f793          	andi	a5,a5,512
   12394:	d4079be3          	bnez	a5,120ea <_vfprintf_r+0x18bc>
   12398:	0a093503          	ld	a0,160(s2)
   1239c:	57fd                	li	a5,-1
   1239e:	e03e                	sd	a5,0(sp)
   123a0:	1b6030ef          	jal	ra,15556 <__retarget_lock_release_recursive>
   123a4:	f58fe06f          	j	10afc <_vfprintf_r+0x2ce>
   123a8:	66c2                	ld	a3,16(sp)
   123aa:	429c                	lw	a5,0(a3)
   123ac:	00868c93          	addi	s9,a3,8
   123b0:	86be                	mv	a3,a5
   123b2:	0007d363          	bgez	a5,123b8 <_vfprintf_r+0x1b8a>
   123b6:	56fd                	li	a3,-1
   123b8:	00144e83          	lbu	t4,1(s0)
   123bc:	8f36                	mv	t5,a3
   123be:	e866                	sd	s9,16(sp)
   123c0:	843a                	mv	s0,a4
   123c2:	db8fe06f          	j	1097a <_vfprintf_r+0x14c>
   123c6:	877a                	mv	a4,t5
   123c8:	976a                	add	a4,a4,s10
   123ca:	b93d                	j	12008 <_vfprintf_r+0x17da>
   123cc:	01095783          	lhu	a5,16(s2)
   123d0:	0407e793          	ori	a5,a5,64
   123d4:	00f91823          	sh	a5,16(s2)
   123d8:	f0cfe06f          	j	10ae4 <_vfprintf_r+0x2b6>
   123dc:	4789                	li	a5,2
   123de:	e13e                	sd	a5,128(sp)
   123e0:	977fe06f          	j	10d56 <_vfprintf_r+0x528>

00000000000123e4 <vfprintf>:
   123e4:	87aa                	mv	a5,a0
   123e6:	7081b503          	ld	a0,1800(gp) # 1fe20 <_impure_ptr>
   123ea:	86b2                	mv	a3,a2
   123ec:	862e                	mv	a2,a1
   123ee:	85be                	mv	a1,a5
   123f0:	c3efe06f          	j	1082e <_vfprintf_r>

00000000000123f4 <__sbprintf>:
   123f4:	0105d783          	lhu	a5,16(a1)
   123f8:	b1010113          	addi	sp,sp,-1264
   123fc:	0b05a303          	lw	t1,176(a1)
   12400:	0125d883          	lhu	a7,18(a1)
   12404:	0305b803          	ld	a6,48(a1)
   12408:	4e813023          	sd	s0,1248(sp)
   1240c:	842e                	mv	s0,a1
   1240e:	61ac                	ld	a1,64(a1)
   12410:	9bf5                	andi	a5,a5,-3
   12412:	40000713          	li	a4,1024
   12416:	4d213823          	sd	s2,1232(sp)
   1241a:	00f11c23          	sh	a5,24(sp)
   1241e:	892a                	mv	s2,a0
   12420:	019c                	addi	a5,sp,192
   12422:	1128                	addi	a0,sp,168
   12424:	4e113423          	sd	ra,1256(sp)
   12428:	4c913c23          	sd	s1,1240(sp)
   1242c:	4d313423          	sd	s3,1224(sp)
   12430:	84b2                	mv	s1,a2
   12432:	89b6                	mv	s3,a3
   12434:	dd1a                	sw	t1,184(sp)
   12436:	01111d23          	sh	a7,26(sp)
   1243a:	fc42                	sd	a6,56(sp)
   1243c:	e4ae                	sd	a1,72(sp)
   1243e:	e43e                	sd	a5,8(sp)
   12440:	f03e                	sd	a5,32(sp)
   12442:	ca3a                	sw	a4,20(sp)
   12444:	d43a                	sw	a4,40(sp)
   12446:	d802                	sw	zero,48(sp)
   12448:	0fa030ef          	jal	ra,15542 <__retarget_lock_init_recursive>
   1244c:	8626                	mv	a2,s1
   1244e:	86ce                	mv	a3,s3
   12450:	002c                	addi	a1,sp,8
   12452:	854a                	mv	a0,s2
   12454:	bdafe0ef          	jal	ra,1082e <_vfprintf_r>
   12458:	84aa                	mv	s1,a0
   1245a:	02055e63          	bgez	a0,12496 <__sbprintf+0xa2>
   1245e:	01815783          	lhu	a5,24(sp)
   12462:	0407f793          	andi	a5,a5,64
   12466:	c799                	beqz	a5,12474 <__sbprintf+0x80>
   12468:	01045783          	lhu	a5,16(s0)
   1246c:	0407e793          	ori	a5,a5,64
   12470:	00f41823          	sh	a5,16(s0)
   12474:	752a                	ld	a0,168(sp)
   12476:	0d0030ef          	jal	ra,15546 <__retarget_lock_close_recursive>
   1247a:	4e813083          	ld	ra,1256(sp)
   1247e:	4e013403          	ld	s0,1248(sp)
   12482:	4d013903          	ld	s2,1232(sp)
   12486:	4c813983          	ld	s3,1224(sp)
   1248a:	8526                	mv	a0,s1
   1248c:	4d813483          	ld	s1,1240(sp)
   12490:	4f010113          	addi	sp,sp,1264
   12494:	8082                	ret
   12496:	002c                	addi	a1,sp,8
   12498:	854a                	mv	a0,s2
   1249a:	374000ef          	jal	ra,1280e <_fflush_r>
   1249e:	d161                	beqz	a0,1245e <__sbprintf+0x6a>
   124a0:	54fd                	li	s1,-1
   124a2:	bf75                	j	1245e <__sbprintf+0x6a>

00000000000124a4 <__swsetup_r>:
   124a4:	7081b783          	ld	a5,1800(gp) # 1fe20 <_impure_ptr>
   124a8:	1101                	addi	sp,sp,-32
   124aa:	e822                	sd	s0,16(sp)
   124ac:	e426                	sd	s1,8(sp)
   124ae:	ec06                	sd	ra,24(sp)
   124b0:	84aa                	mv	s1,a0
   124b2:	842e                	mv	s0,a1
   124b4:	c399                	beqz	a5,124ba <__swsetup_r+0x16>
   124b6:	4bb8                	lw	a4,80(a5)
   124b8:	cf21                	beqz	a4,12510 <__swsetup_r+0x6c>
   124ba:	01041703          	lh	a4,16(s0)
   124be:	03071793          	slli	a5,a4,0x30
   124c2:	00877693          	andi	a3,a4,8
   124c6:	93c1                	srli	a5,a5,0x30
   124c8:	ceb9                	beqz	a3,12526 <__swsetup_r+0x82>
   124ca:	6c14                	ld	a3,24(s0)
   124cc:	cabd                	beqz	a3,12542 <__swsetup_r+0x9e>
   124ce:	0017f613          	andi	a2,a5,1
   124d2:	ce11                	beqz	a2,124ee <__swsetup_r+0x4a>
   124d4:	5010                	lw	a2,32(s0)
   124d6:	00042623          	sw	zero,12(s0)
   124da:	4501                	li	a0,0
   124dc:	40c0063b          	negw	a2,a2
   124e0:	d410                	sw	a2,40(s0)
   124e2:	ce91                	beqz	a3,124fe <__swsetup_r+0x5a>
   124e4:	60e2                	ld	ra,24(sp)
   124e6:	6442                	ld	s0,16(sp)
   124e8:	64a2                	ld	s1,8(sp)
   124ea:	6105                	addi	sp,sp,32
   124ec:	8082                	ret
   124ee:	0027f613          	andi	a2,a5,2
   124f2:	4581                	li	a1,0
   124f4:	e211                	bnez	a2,124f8 <__swsetup_r+0x54>
   124f6:	500c                	lw	a1,32(s0)
   124f8:	c44c                	sw	a1,12(s0)
   124fa:	4501                	li	a0,0
   124fc:	f6e5                	bnez	a3,124e4 <__swsetup_r+0x40>
   124fe:	0807f793          	andi	a5,a5,128
   12502:	d3ed                	beqz	a5,124e4 <__swsetup_r+0x40>
   12504:	04076713          	ori	a4,a4,64
   12508:	00e41823          	sh	a4,16(s0)
   1250c:	557d                	li	a0,-1
   1250e:	bfd9                	j	124e4 <__swsetup_r+0x40>
   12510:	853e                	mv	a0,a5
   12512:	4bc000ef          	jal	ra,129ce <__sinit>
   12516:	01041703          	lh	a4,16(s0)
   1251a:	03071793          	slli	a5,a4,0x30
   1251e:	00877693          	andi	a3,a4,8
   12522:	93c1                	srli	a5,a5,0x30
   12524:	f2dd                	bnez	a3,124ca <__swsetup_r+0x26>
   12526:	0107f693          	andi	a3,a5,16
   1252a:	c2ad                	beqz	a3,1258c <__swsetup_r+0xe8>
   1252c:	8b91                	andi	a5,a5,4
   1252e:	eb9d                	bnez	a5,12564 <__swsetup_r+0xc0>
   12530:	6c14                	ld	a3,24(s0)
   12532:	00876713          	ori	a4,a4,8
   12536:	03071793          	slli	a5,a4,0x30
   1253a:	00e41823          	sh	a4,16(s0)
   1253e:	93c1                	srli	a5,a5,0x30
   12540:	f6d9                	bnez	a3,124ce <__swsetup_r+0x2a>
   12542:	2807f613          	andi	a2,a5,640
   12546:	20000593          	li	a1,512
   1254a:	f8b602e3          	beq	a2,a1,124ce <__swsetup_r+0x2a>
   1254e:	85a2                	mv	a1,s0
   12550:	8526                	mv	a0,s1
   12552:	006030ef          	jal	ra,15558 <__smakebuf_r>
   12556:	01041703          	lh	a4,16(s0)
   1255a:	6c14                	ld	a3,24(s0)
   1255c:	03071793          	slli	a5,a4,0x30
   12560:	93c1                	srli	a5,a5,0x30
   12562:	b7b5                	j	124ce <__swsetup_r+0x2a>
   12564:	6c2c                	ld	a1,88(s0)
   12566:	cd81                	beqz	a1,1257e <__swsetup_r+0xda>
   12568:	07440793          	addi	a5,s0,116
   1256c:	00f58763          	beq	a1,a5,1257a <__swsetup_r+0xd6>
   12570:	8526                	mv	a0,s1
   12572:	00d000ef          	jal	ra,12d7e <_free_r>
   12576:	01041703          	lh	a4,16(s0)
   1257a:	04043c23          	sd	zero,88(s0)
   1257e:	6c14                	ld	a3,24(s0)
   12580:	fdb77713          	andi	a4,a4,-37
   12584:	00042423          	sw	zero,8(s0)
   12588:	e014                	sd	a3,0(s0)
   1258a:	b765                	j	12532 <__swsetup_r+0x8e>
   1258c:	47a5                	li	a5,9
   1258e:	c09c                	sw	a5,0(s1)
   12590:	04076713          	ori	a4,a4,64
   12594:	00e41823          	sh	a4,16(s0)
   12598:	557d                	li	a0,-1
   1259a:	b7a9                	j	124e4 <__swsetup_r+0x40>

000000000001259c <__call_exitprocs>:
   1259c:	711d                	addi	sp,sp,-96
   1259e:	ec5e                	sd	s7,24(sp)
   125a0:	71018b93          	addi	s7,gp,1808 # 1fe28 <__atexit_recursive_mutex>
   125a4:	f05a                	sd	s6,32(sp)
   125a6:	8b2a                	mv	s6,a0
   125a8:	000bb503          	ld	a0,0(s7)
   125ac:	e0ca                	sd	s2,64(sp)
   125ae:	fc4e                	sd	s3,56(sp)
   125b0:	f852                	sd	s4,48(sp)
   125b2:	f456                	sd	s5,40(sp)
   125b4:	e862                	sd	s8,16(sp)
   125b6:	ec86                	sd	ra,88(sp)
   125b8:	e8a2                	sd	s0,80(sp)
   125ba:	e4a6                	sd	s1,72(sp)
   125bc:	e466                	sd	s9,8(sp)
   125be:	8c2e                	mv	s8,a1
   125c0:	78b020ef          	jal	ra,1554a <__retarget_lock_acquire_recursive>
   125c4:	6f81ba03          	ld	s4,1784(gp) # 1fe10 <_global_impure_ptr>
   125c8:	4a85                	li	s5,1
   125ca:	59fd                	li	s3,-1
   125cc:	1f8a3903          	ld	s2,504(s4)
   125d0:	02090463          	beqz	s2,125f8 <__call_exitprocs+0x5c>
   125d4:	00892483          	lw	s1,8(s2)
   125d8:	fff4841b          	addiw	s0,s1,-1
   125dc:	00044e63          	bltz	s0,125f8 <__call_exitprocs+0x5c>
   125e0:	048e                	slli	s1,s1,0x3
   125e2:	94ca                	add	s1,s1,s2
   125e4:	020c0a63          	beqz	s8,12618 <__call_exitprocs+0x7c>
   125e8:	2084b783          	ld	a5,520(s1)
   125ec:	03878663          	beq	a5,s8,12618 <__call_exitprocs+0x7c>
   125f0:	347d                	addiw	s0,s0,-1
   125f2:	14e1                	addi	s1,s1,-8
   125f4:	ff3418e3          	bne	s0,s3,125e4 <__call_exitprocs+0x48>
   125f8:	6446                	ld	s0,80(sp)
   125fa:	000bb503          	ld	a0,0(s7)
   125fe:	60e6                	ld	ra,88(sp)
   12600:	64a6                	ld	s1,72(sp)
   12602:	6906                	ld	s2,64(sp)
   12604:	79e2                	ld	s3,56(sp)
   12606:	7a42                	ld	s4,48(sp)
   12608:	7aa2                	ld	s5,40(sp)
   1260a:	7b02                	ld	s6,32(sp)
   1260c:	6be2                	ld	s7,24(sp)
   1260e:	6c42                	ld	s8,16(sp)
   12610:	6ca2                	ld	s9,8(sp)
   12612:	6125                	addi	sp,sp,96
   12614:	7430206f          	j	15556 <__retarget_lock_release_recursive>
   12618:	00892783          	lw	a5,8(s2)
   1261c:	6498                	ld	a4,8(s1)
   1261e:	37fd                	addiw	a5,a5,-1
   12620:	04878263          	beq	a5,s0,12664 <__call_exitprocs+0xc8>
   12624:	0004b423          	sd	zero,8(s1)
   12628:	d761                	beqz	a4,125f0 <__call_exitprocs+0x54>
   1262a:	31092783          	lw	a5,784(s2)
   1262e:	008a96bb          	sllw	a3,s5,s0
   12632:	00892c83          	lw	s9,8(s2)
   12636:	8ff5                	and	a5,a5,a3
   12638:	ef89                	bnez	a5,12652 <__call_exitprocs+0xb6>
   1263a:	9702                	jalr	a4
   1263c:	00892703          	lw	a4,8(s2)
   12640:	1f8a3783          	ld	a5,504(s4)
   12644:	01971463          	bne	a4,s9,1264c <__call_exitprocs+0xb0>
   12648:	fb2784e3          	beq	a5,s2,125f0 <__call_exitprocs+0x54>
   1264c:	d7d5                	beqz	a5,125f8 <__call_exitprocs+0x5c>
   1264e:	893e                	mv	s2,a5
   12650:	b751                	j	125d4 <__call_exitprocs+0x38>
   12652:	31492783          	lw	a5,788(s2)
   12656:	1084b583          	ld	a1,264(s1)
   1265a:	8ff5                	and	a5,a5,a3
   1265c:	e799                	bnez	a5,1266a <__call_exitprocs+0xce>
   1265e:	855a                	mv	a0,s6
   12660:	9702                	jalr	a4
   12662:	bfe9                	j	1263c <__call_exitprocs+0xa0>
   12664:	00892423          	sw	s0,8(s2)
   12668:	b7c1                	j	12628 <__call_exitprocs+0x8c>
   1266a:	852e                	mv	a0,a1
   1266c:	9702                	jalr	a4
   1266e:	b7f9                	j	1263c <__call_exitprocs+0xa0>

0000000000012670 <atexit>:
   12670:	85aa                	mv	a1,a0
   12672:	4681                	li	a3,0
   12674:	4601                	li	a2,0
   12676:	4501                	li	a0,0
   12678:	0490706f          	j	19ec0 <__register_exitproc>

000000000001267c <__sflush_r>:
   1267c:	01059783          	lh	a5,16(a1)
   12680:	7179                	addi	sp,sp,-48
   12682:	f022                	sd	s0,32(sp)
   12684:	e44e                	sd	s3,8(sp)
   12686:	f406                	sd	ra,40(sp)
   12688:	ec26                	sd	s1,24(sp)
   1268a:	e84a                	sd	s2,16(sp)
   1268c:	0087f693          	andi	a3,a5,8
   12690:	842e                	mv	s0,a1
   12692:	89aa                	mv	s3,a0
   12694:	ead5                	bnez	a3,12748 <__sflush_r+0xcc>
   12696:	6705                	lui	a4,0x1
   12698:	80070713          	addi	a4,a4,-2048 # 800 <main-0xf8b0>
   1269c:	4594                	lw	a3,8(a1)
   1269e:	8fd9                	or	a5,a5,a4
   126a0:	00f59823          	sh	a5,16(a1)
   126a4:	10d05063          	blez	a3,127a4 <__sflush_r+0x128>
   126a8:	6438                	ld	a4,72(s0)
   126aa:	c759                	beqz	a4,12738 <__sflush_r+0xbc>
   126ac:	17c2                	slli	a5,a5,0x30
   126ae:	93c1                	srli	a5,a5,0x30
   126b0:	6685                	lui	a3,0x1
   126b2:	0009a483          	lw	s1,0(s3)
   126b6:	8efd                	and	a3,a3,a5
   126b8:	0009a023          	sw	zero,0(s3)
   126bc:	eae5                	bnez	a3,127ac <__sflush_r+0x130>
   126be:	780c                	ld	a1,48(s0)
   126c0:	4601                	li	a2,0
   126c2:	4685                	li	a3,1
   126c4:	854e                	mv	a0,s3
   126c6:	9702                	jalr	a4
   126c8:	57fd                	li	a5,-1
   126ca:	862a                	mv	a2,a0
   126cc:	10f50763          	beq	a0,a5,127da <__sflush_r+0x15e>
   126d0:	01045783          	lhu	a5,16(s0)
   126d4:	6438                	ld	a4,72(s0)
   126d6:	8b91                	andi	a5,a5,4
   126d8:	c799                	beqz	a5,126e6 <__sflush_r+0x6a>
   126da:	4414                	lw	a3,8(s0)
   126dc:	6c3c                	ld	a5,88(s0)
   126de:	8e15                	sub	a2,a2,a3
   126e0:	c399                	beqz	a5,126e6 <__sflush_r+0x6a>
   126e2:	583c                	lw	a5,112(s0)
   126e4:	8e1d                	sub	a2,a2,a5
   126e6:	780c                	ld	a1,48(s0)
   126e8:	4681                	li	a3,0
   126ea:	854e                	mv	a0,s3
   126ec:	9702                	jalr	a4
   126ee:	57fd                	li	a5,-1
   126f0:	0cf51063          	bne	a0,a5,127b0 <__sflush_r+0x134>
   126f4:	0009a703          	lw	a4,0(s3)
   126f8:	01041783          	lh	a5,16(s0)
   126fc:	cf6d                	beqz	a4,127f6 <__sflush_r+0x17a>
   126fe:	46f5                	li	a3,29
   12700:	00d70563          	beq	a4,a3,1270a <__sflush_r+0x8e>
   12704:	46d9                	li	a3,22
   12706:	0ed71e63          	bne	a4,a3,12802 <__sflush_r+0x186>
   1270a:	6c14                	ld	a3,24(s0)
   1270c:	777d                	lui	a4,0xfffff
   1270e:	7ff70713          	addi	a4,a4,2047 # fffffffffffff7ff <__BSS_END__+0xfffffffffffdf8e7>
   12712:	8ff9                	and	a5,a5,a4
   12714:	00f41823          	sh	a5,16(s0)
   12718:	00042423          	sw	zero,8(s0)
   1271c:	e014                	sd	a3,0(s0)
   1271e:	6c2c                	ld	a1,88(s0)
   12720:	0099a023          	sw	s1,0(s3)
   12724:	c991                	beqz	a1,12738 <__sflush_r+0xbc>
   12726:	07440793          	addi	a5,s0,116
   1272a:	00f58563          	beq	a1,a5,12734 <__sflush_r+0xb8>
   1272e:	854e                	mv	a0,s3
   12730:	64e000ef          	jal	ra,12d7e <_free_r>
   12734:	04043c23          	sd	zero,88(s0)
   12738:	4501                	li	a0,0
   1273a:	70a2                	ld	ra,40(sp)
   1273c:	7402                	ld	s0,32(sp)
   1273e:	64e2                	ld	s1,24(sp)
   12740:	6942                	ld	s2,16(sp)
   12742:	69a2                	ld	s3,8(sp)
   12744:	6145                	addi	sp,sp,48
   12746:	8082                	ret
   12748:	0185b903          	ld	s2,24(a1)
   1274c:	fe0906e3          	beqz	s2,12738 <__sflush_r+0xbc>
   12750:	6184                	ld	s1,0(a1)
   12752:	03079713          	slli	a4,a5,0x30
   12756:	9341                	srli	a4,a4,0x30
   12758:	8b0d                	andi	a4,a4,3
   1275a:	0125b023          	sd	s2,0(a1)
   1275e:	412484bb          	subw	s1,s1,s2
   12762:	4781                	li	a5,0
   12764:	e311                	bnez	a4,12768 <__sflush_r+0xec>
   12766:	519c                	lw	a5,32(a1)
   12768:	c45c                	sw	a5,12(s0)
   1276a:	00904663          	bgtz	s1,12776 <__sflush_r+0xfa>
   1276e:	b7e9                	j	12738 <__sflush_r+0xbc>
   12770:	992a                	add	s2,s2,a0
   12772:	fc9053e3          	blez	s1,12738 <__sflush_r+0xbc>
   12776:	603c                	ld	a5,64(s0)
   12778:	780c                	ld	a1,48(s0)
   1277a:	86a6                	mv	a3,s1
   1277c:	864a                	mv	a2,s2
   1277e:	854e                	mv	a0,s3
   12780:	9782                	jalr	a5
   12782:	9c89                	subw	s1,s1,a0
   12784:	fea046e3          	bgtz	a0,12770 <__sflush_r+0xf4>
   12788:	01045783          	lhu	a5,16(s0)
   1278c:	70a2                	ld	ra,40(sp)
   1278e:	64e2                	ld	s1,24(sp)
   12790:	0407e793          	ori	a5,a5,64
   12794:	00f41823          	sh	a5,16(s0)
   12798:	7402                	ld	s0,32(sp)
   1279a:	6942                	ld	s2,16(sp)
   1279c:	69a2                	ld	s3,8(sp)
   1279e:	557d                	li	a0,-1
   127a0:	6145                	addi	sp,sp,48
   127a2:	8082                	ret
   127a4:	59b8                	lw	a4,112(a1)
   127a6:	f0e041e3          	bgtz	a4,126a8 <__sflush_r+0x2c>
   127aa:	b779                	j	12738 <__sflush_r+0xbc>
   127ac:	6850                	ld	a2,144(s0)
   127ae:	b725                	j	126d6 <__sflush_r+0x5a>
   127b0:	01045783          	lhu	a5,16(s0)
   127b4:	777d                	lui	a4,0xfffff
   127b6:	7ff70713          	addi	a4,a4,2047 # fffffffffffff7ff <__BSS_END__+0xfffffffffffdf8e7>
   127ba:	8ff9                	and	a5,a5,a4
   127bc:	6c14                	ld	a3,24(s0)
   127be:	0107979b          	slliw	a5,a5,0x10
   127c2:	4107d79b          	sraiw	a5,a5,0x10
   127c6:	6705                	lui	a4,0x1
   127c8:	00f41823          	sh	a5,16(s0)
   127cc:	00042423          	sw	zero,8(s0)
   127d0:	e014                	sd	a3,0(s0)
   127d2:	8ff9                	and	a5,a5,a4
   127d4:	d7a9                	beqz	a5,1271e <__sflush_r+0xa2>
   127d6:	e848                	sd	a0,144(s0)
   127d8:	b799                	j	1271e <__sflush_r+0xa2>
   127da:	0009a783          	lw	a5,0(s3)
   127de:	ee0789e3          	beqz	a5,126d0 <__sflush_r+0x54>
   127e2:	4775                	li	a4,29
   127e4:	00e78563          	beq	a5,a4,127ee <__sflush_r+0x172>
   127e8:	4759                	li	a4,22
   127ea:	f8e79fe3          	bne	a5,a4,12788 <__sflush_r+0x10c>
   127ee:	0099a023          	sw	s1,0(s3)
   127f2:	4501                	li	a0,0
   127f4:	b799                	j	1273a <__sflush_r+0xbe>
   127f6:	777d                	lui	a4,0xfffff
   127f8:	7ff70713          	addi	a4,a4,2047 # fffffffffffff7ff <__BSS_END__+0xfffffffffffdf8e7>
   127fc:	6c14                	ld	a3,24(s0)
   127fe:	8ff9                	and	a5,a5,a4
   12800:	b7d9                	j	127c6 <__sflush_r+0x14a>
   12802:	0407e793          	ori	a5,a5,64
   12806:	00f41823          	sh	a5,16(s0)
   1280a:	557d                	li	a0,-1
   1280c:	b73d                	j	1273a <__sflush_r+0xbe>

000000000001280e <_fflush_r>:
   1280e:	1101                	addi	sp,sp,-32
   12810:	e822                	sd	s0,16(sp)
   12812:	e426                	sd	s1,8(sp)
   12814:	ec06                	sd	ra,24(sp)
   12816:	e04a                	sd	s2,0(sp)
   12818:	84aa                	mv	s1,a0
   1281a:	842e                	mv	s0,a1
   1281c:	c119                	beqz	a0,12822 <_fflush_r+0x14>
   1281e:	493c                	lw	a5,80(a0)
   12820:	c3a9                	beqz	a5,12862 <_fflush_r+0x54>
   12822:	01041783          	lh	a5,16(s0)
   12826:	4901                	li	s2,0
   12828:	c795                	beqz	a5,12854 <_fflush_r+0x46>
   1282a:	0b042703          	lw	a4,176(s0)
   1282e:	8b05                	andi	a4,a4,1
   12830:	e701                	bnez	a4,12838 <_fflush_r+0x2a>
   12832:	2007f793          	andi	a5,a5,512
   12836:	cb8d                	beqz	a5,12868 <_fflush_r+0x5a>
   12838:	85a2                	mv	a1,s0
   1283a:	8526                	mv	a0,s1
   1283c:	e41ff0ef          	jal	ra,1267c <__sflush_r>
   12840:	0b042783          	lw	a5,176(s0)
   12844:	892a                	mv	s2,a0
   12846:	8b85                	andi	a5,a5,1
   12848:	e791                	bnez	a5,12854 <_fflush_r+0x46>
   1284a:	01045783          	lhu	a5,16(s0)
   1284e:	2007f793          	andi	a5,a5,512
   12852:	cb85                	beqz	a5,12882 <_fflush_r+0x74>
   12854:	60e2                	ld	ra,24(sp)
   12856:	6442                	ld	s0,16(sp)
   12858:	64a2                	ld	s1,8(sp)
   1285a:	854a                	mv	a0,s2
   1285c:	6902                	ld	s2,0(sp)
   1285e:	6105                	addi	sp,sp,32
   12860:	8082                	ret
   12862:	16c000ef          	jal	ra,129ce <__sinit>
   12866:	bf75                	j	12822 <_fflush_r+0x14>
   12868:	7048                	ld	a0,160(s0)
   1286a:	4e1020ef          	jal	ra,1554a <__retarget_lock_acquire_recursive>
   1286e:	85a2                	mv	a1,s0
   12870:	8526                	mv	a0,s1
   12872:	e0bff0ef          	jal	ra,1267c <__sflush_r>
   12876:	0b042783          	lw	a5,176(s0)
   1287a:	892a                	mv	s2,a0
   1287c:	8b85                	andi	a5,a5,1
   1287e:	fbf9                	bnez	a5,12854 <_fflush_r+0x46>
   12880:	b7e9                	j	1284a <_fflush_r+0x3c>
   12882:	7048                	ld	a0,160(s0)
   12884:	4d3020ef          	jal	ra,15556 <__retarget_lock_release_recursive>
   12888:	60e2                	ld	ra,24(sp)
   1288a:	6442                	ld	s0,16(sp)
   1288c:	64a2                	ld	s1,8(sp)
   1288e:	854a                	mv	a0,s2
   12890:	6902                	ld	s2,0(sp)
   12892:	6105                	addi	sp,sp,32
   12894:	8082                	ret

0000000000012896 <fflush>:
   12896:	c935                	beqz	a0,1290a <fflush+0x74>
   12898:	1101                	addi	sp,sp,-32
   1289a:	e04a                	sd	s2,0(sp)
   1289c:	7081b903          	ld	s2,1800(gp) # 1fe20 <_impure_ptr>
   128a0:	e822                	sd	s0,16(sp)
   128a2:	ec06                	sd	ra,24(sp)
   128a4:	e426                	sd	s1,8(sp)
   128a6:	842a                	mv	s0,a0
   128a8:	00090563          	beqz	s2,128b2 <fflush+0x1c>
   128ac:	05092783          	lw	a5,80(s2)
   128b0:	c3a9                	beqz	a5,128f2 <fflush+0x5c>
   128b2:	01041783          	lh	a5,16(s0)
   128b6:	4481                	li	s1,0
   128b8:	c795                	beqz	a5,128e4 <fflush+0x4e>
   128ba:	0b042703          	lw	a4,176(s0)
   128be:	8b05                	andi	a4,a4,1
   128c0:	e701                	bnez	a4,128c8 <fflush+0x32>
   128c2:	2007f793          	andi	a5,a5,512
   128c6:	cb95                	beqz	a5,128fa <fflush+0x64>
   128c8:	85a2                	mv	a1,s0
   128ca:	854a                	mv	a0,s2
   128cc:	db1ff0ef          	jal	ra,1267c <__sflush_r>
   128d0:	0b042783          	lw	a5,176(s0)
   128d4:	84aa                	mv	s1,a0
   128d6:	8b85                	andi	a5,a5,1
   128d8:	e791                	bnez	a5,128e4 <fflush+0x4e>
   128da:	01045783          	lhu	a5,16(s0)
   128de:	2007f793          	andi	a5,a5,512
   128e2:	c385                	beqz	a5,12902 <fflush+0x6c>
   128e4:	60e2                	ld	ra,24(sp)
   128e6:	6442                	ld	s0,16(sp)
   128e8:	6902                	ld	s2,0(sp)
   128ea:	8526                	mv	a0,s1
   128ec:	64a2                	ld	s1,8(sp)
   128ee:	6105                	addi	sp,sp,32
   128f0:	8082                	ret
   128f2:	854a                	mv	a0,s2
   128f4:	0da000ef          	jal	ra,129ce <__sinit>
   128f8:	bf6d                	j	128b2 <fflush+0x1c>
   128fa:	7048                	ld	a0,160(s0)
   128fc:	44f020ef          	jal	ra,1554a <__retarget_lock_acquire_recursive>
   12900:	b7e1                	j	128c8 <fflush+0x32>
   12902:	7048                	ld	a0,160(s0)
   12904:	453020ef          	jal	ra,15556 <__retarget_lock_release_recursive>
   12908:	bff1                	j	128e4 <fflush+0x4e>
   1290a:	6f81b503          	ld	a0,1784(gp) # 1fe10 <_global_impure_ptr>
   1290e:	00000597          	auipc	a1,0x0
   12912:	f0058593          	addi	a1,a1,-256 # 1280e <_fflush_r>
   12916:	25f0006f          	j	13374 <_fwalk_reent>

000000000001291a <_cleanup_r>:
   1291a:	00007597          	auipc	a1,0x7
   1291e:	74858593          	addi	a1,a1,1864 # 1a062 <_fclose_r>
   12922:	2530006f          	j	13374 <_fwalk_reent>

0000000000012926 <__fp_lock>:
   12926:	0b052783          	lw	a5,176(a0)
   1292a:	8b85                	andi	a5,a5,1
   1292c:	e791                	bnez	a5,12938 <__fp_lock+0x12>
   1292e:	01055783          	lhu	a5,16(a0)
   12932:	2007f793          	andi	a5,a5,512
   12936:	c399                	beqz	a5,1293c <__fp_lock+0x16>
   12938:	4501                	li	a0,0
   1293a:	8082                	ret
   1293c:	7148                	ld	a0,160(a0)
   1293e:	1141                	addi	sp,sp,-16
   12940:	e406                	sd	ra,8(sp)
   12942:	409020ef          	jal	ra,1554a <__retarget_lock_acquire_recursive>
   12946:	60a2                	ld	ra,8(sp)
   12948:	4501                	li	a0,0
   1294a:	0141                	addi	sp,sp,16
   1294c:	8082                	ret

000000000001294e <__fp_unlock>:
   1294e:	0b052783          	lw	a5,176(a0)
   12952:	8b85                	andi	a5,a5,1
   12954:	e791                	bnez	a5,12960 <__fp_unlock+0x12>
   12956:	01055783          	lhu	a5,16(a0)
   1295a:	2007f793          	andi	a5,a5,512
   1295e:	c399                	beqz	a5,12964 <__fp_unlock+0x16>
   12960:	4501                	li	a0,0
   12962:	8082                	ret
   12964:	7148                	ld	a0,160(a0)
   12966:	1141                	addi	sp,sp,-16
   12968:	e406                	sd	ra,8(sp)
   1296a:	3ed020ef          	jal	ra,15556 <__retarget_lock_release_recursive>
   1296e:	60a2                	ld	ra,8(sp)
   12970:	4501                	li	a0,0
   12972:	0141                	addi	sp,sp,16
   12974:	8082                	ret

0000000000012976 <__sfmoreglue>:
   12976:	1101                	addi	sp,sp,-32
   12978:	e426                	sd	s1,8(sp)
   1297a:	0b800613          	li	a2,184
   1297e:	fff5849b          	addiw	s1,a1,-1
   12982:	02c484b3          	mul	s1,s1,a2
   12986:	e04a                	sd	s2,0(sp)
   12988:	892e                	mv	s2,a1
   1298a:	e822                	sd	s0,16(sp)
   1298c:	ec06                	sd	ra,24(sp)
   1298e:	0d048593          	addi	a1,s1,208
   12992:	55f020ef          	jal	ra,156f0 <_malloc_r>
   12996:	842a                	mv	s0,a0
   12998:	cd01                	beqz	a0,129b0 <__sfmoreglue+0x3a>
   1299a:	0561                	addi	a0,a0,24
   1299c:	00043023          	sd	zero,0(s0)
   129a0:	01242423          	sw	s2,8(s0)
   129a4:	e808                	sd	a0,16(s0)
   129a6:	0b848613          	addi	a2,s1,184
   129aa:	4581                	li	a1,0
   129ac:	c11fd0ef          	jal	ra,105bc <memset>
   129b0:	60e2                	ld	ra,24(sp)
   129b2:	8522                	mv	a0,s0
   129b4:	6442                	ld	s0,16(sp)
   129b6:	64a2                	ld	s1,8(sp)
   129b8:	6902                	ld	s2,0(sp)
   129ba:	6105                	addi	sp,sp,32
   129bc:	8082                	ret

00000000000129be <_cleanup>:
   129be:	6f81b503          	ld	a0,1784(gp) # 1fe10 <_global_impure_ptr>
   129c2:	00007597          	auipc	a1,0x7
   129c6:	6a058593          	addi	a1,a1,1696 # 1a062 <_fclose_r>
   129ca:	1ab0006f          	j	13374 <_fwalk_reent>

00000000000129ce <__sinit>:
   129ce:	7139                	addi	sp,sp,-64
   129d0:	f426                	sd	s1,40(sp)
   129d2:	84aa                	mv	s1,a0
   129d4:	76818513          	addi	a0,gp,1896 # 1fe80 <__lock___sinit_recursive_mutex>
   129d8:	fc06                	sd	ra,56(sp)
   129da:	f822                	sd	s0,48(sp)
   129dc:	f04a                	sd	s2,32(sp)
   129de:	ec4e                	sd	s3,24(sp)
   129e0:	e852                	sd	s4,16(sp)
   129e2:	e456                	sd	s5,8(sp)
   129e4:	367020ef          	jal	ra,1554a <__retarget_lock_acquire_recursive>
   129e8:	48bc                	lw	a5,80(s1)
   129ea:	10079b63          	bnez	a5,12b00 <__sinit+0x132>
   129ee:	6480                	ld	s0,8(s1)
   129f0:	00000717          	auipc	a4,0x0
   129f4:	f2a70713          	addi	a4,a4,-214 # 1291a <_cleanup_r>
   129f8:	ecb8                	sd	a4,88(s1)
   129fa:	53848793          	addi	a5,s1,1336
   129fe:	470d                	li	a4,3
   12a00:	52e4a423          	sw	a4,1320(s1)
   12a04:	52f4b823          	sd	a5,1328(s1)
   12a08:	5204b023          	sd	zero,1312(s1)
   12a0c:	4791                	li	a5,4
   12a0e:	c81c                	sw	a5,16(s0)
   12a10:	4621                	li	a2,8
   12a12:	4581                	li	a1,0
   12a14:	0a042823          	sw	zero,176(s0)
   12a18:	00043023          	sd	zero,0(s0)
   12a1c:	00043423          	sd	zero,8(s0)
   12a20:	00043c23          	sd	zero,24(s0)
   12a24:	02042023          	sw	zero,32(s0)
   12a28:	02042423          	sw	zero,40(s0)
   12a2c:	0a840513          	addi	a0,s0,168
   12a30:	b8dfd0ef          	jal	ra,105bc <memset>
   12a34:	00005a97          	auipc	s5,0x5
   12a38:	846a8a93          	addi	s5,s5,-1978 # 1727a <__sread>
   12a3c:	00005a17          	auipc	s4,0x5
   12a40:	87aa0a13          	addi	s4,s4,-1926 # 172b6 <__swrite>
   12a44:	00005997          	auipc	s3,0x5
   12a48:	8c698993          	addi	s3,s3,-1850 # 1730a <__sseek>
   12a4c:	00005917          	auipc	s2,0x5
   12a50:	90090913          	addi	s2,s2,-1792 # 1734c <__sclose>
   12a54:	0a040513          	addi	a0,s0,160
   12a58:	f800                	sd	s0,48(s0)
   12a5a:	03543c23          	sd	s5,56(s0)
   12a5e:	05443023          	sd	s4,64(s0)
   12a62:	05343423          	sd	s3,72(s0)
   12a66:	05243823          	sd	s2,80(s0)
   12a6a:	2d9020ef          	jal	ra,15542 <__retarget_lock_init_recursive>
   12a6e:	6880                	ld	s0,16(s1)
   12a70:	67c1                	lui	a5,0x10
   12a72:	07a5                	addi	a5,a5,9
   12a74:	c81c                	sw	a5,16(s0)
   12a76:	4621                	li	a2,8
   12a78:	4581                	li	a1,0
   12a7a:	0a042823          	sw	zero,176(s0)
   12a7e:	00043023          	sd	zero,0(s0)
   12a82:	00043423          	sd	zero,8(s0)
   12a86:	00043c23          	sd	zero,24(s0)
   12a8a:	02042023          	sw	zero,32(s0)
   12a8e:	02042423          	sw	zero,40(s0)
   12a92:	0a840513          	addi	a0,s0,168
   12a96:	b27fd0ef          	jal	ra,105bc <memset>
   12a9a:	0a040513          	addi	a0,s0,160
   12a9e:	f800                	sd	s0,48(s0)
   12aa0:	03543c23          	sd	s5,56(s0)
   12aa4:	05443023          	sd	s4,64(s0)
   12aa8:	05343423          	sd	s3,72(s0)
   12aac:	05243823          	sd	s2,80(s0)
   12ab0:	293020ef          	jal	ra,15542 <__retarget_lock_init_recursive>
   12ab4:	6c80                	ld	s0,24(s1)
   12ab6:	000207b7          	lui	a5,0x20
   12aba:	07c9                	addi	a5,a5,18
   12abc:	c81c                	sw	a5,16(s0)
   12abe:	4621                	li	a2,8
   12ac0:	4581                	li	a1,0
   12ac2:	0a042823          	sw	zero,176(s0)
   12ac6:	00043023          	sd	zero,0(s0)
   12aca:	00043423          	sd	zero,8(s0)
   12ace:	00043c23          	sd	zero,24(s0)
   12ad2:	02042023          	sw	zero,32(s0)
   12ad6:	02042423          	sw	zero,40(s0)
   12ada:	0a840513          	addi	a0,s0,168
   12ade:	adffd0ef          	jal	ra,105bc <memset>
   12ae2:	0a040513          	addi	a0,s0,160
   12ae6:	f800                	sd	s0,48(s0)
   12ae8:	03543c23          	sd	s5,56(s0)
   12aec:	05443023          	sd	s4,64(s0)
   12af0:	05343423          	sd	s3,72(s0)
   12af4:	05243823          	sd	s2,80(s0)
   12af8:	24b020ef          	jal	ra,15542 <__retarget_lock_init_recursive>
   12afc:	4785                	li	a5,1
   12afe:	c8bc                	sw	a5,80(s1)
   12b00:	7442                	ld	s0,48(sp)
   12b02:	70e2                	ld	ra,56(sp)
   12b04:	74a2                	ld	s1,40(sp)
   12b06:	7902                	ld	s2,32(sp)
   12b08:	69e2                	ld	s3,24(sp)
   12b0a:	6a42                	ld	s4,16(sp)
   12b0c:	6aa2                	ld	s5,8(sp)
   12b0e:	76818513          	addi	a0,gp,1896 # 1fe80 <__lock___sinit_recursive_mutex>
   12b12:	6121                	addi	sp,sp,64
   12b14:	2430206f          	j	15556 <__retarget_lock_release_recursive>

0000000000012b18 <__sfp>:
   12b18:	7179                	addi	sp,sp,-48
   12b1a:	e84a                	sd	s2,16(sp)
   12b1c:	892a                	mv	s2,a0
   12b1e:	76018513          	addi	a0,gp,1888 # 1fe78 <__lock___sfp_recursive_mutex>
   12b22:	ec26                	sd	s1,24(sp)
   12b24:	f406                	sd	ra,40(sp)
   12b26:	f022                	sd	s0,32(sp)
   12b28:	e44e                	sd	s3,8(sp)
   12b2a:	e052                	sd	s4,0(sp)
   12b2c:	21f020ef          	jal	ra,1554a <__retarget_lock_acquire_recursive>
   12b30:	6f81b483          	ld	s1,1784(gp) # 1fe10 <_global_impure_ptr>
   12b34:	48bc                	lw	a5,80(s1)
   12b36:	cbd9                	beqz	a5,12bcc <__sfp+0xb4>
   12b38:	52048493          	addi	s1,s1,1312
   12b3c:	0b800993          	li	s3,184
   12b40:	4a11                	li	s4,4
   12b42:	449c                	lw	a5,8(s1)
   12b44:	6880                	ld	s0,16(s1)
   12b46:	06f05f63          	blez	a5,12bc4 <__sfp+0xac>
   12b4a:	37fd                	addiw	a5,a5,-1
   12b4c:	1782                	slli	a5,a5,0x20
   12b4e:	9381                	srli	a5,a5,0x20
   12b50:	0785                	addi	a5,a5,1
   12b52:	033787b3          	mul	a5,a5,s3
   12b56:	97a2                	add	a5,a5,s0
   12b58:	a029                	j	12b62 <__sfp+0x4a>
   12b5a:	0b840413          	addi	s0,s0,184
   12b5e:	06f40363          	beq	s0,a5,12bc4 <__sfp+0xac>
   12b62:	01041703          	lh	a4,16(s0)
   12b66:	fb75                	bnez	a4,12b5a <__sfp+0x42>
   12b68:	77c1                	lui	a5,0xffff0
   12b6a:	0785                	addi	a5,a5,1
   12b6c:	c81c                	sw	a5,16(s0)
   12b6e:	0a040513          	addi	a0,s0,160
   12b72:	0a042823          	sw	zero,176(s0)
   12b76:	1cd020ef          	jal	ra,15542 <__retarget_lock_init_recursive>
   12b7a:	76018513          	addi	a0,gp,1888 # 1fe78 <__lock___sfp_recursive_mutex>
   12b7e:	1d9020ef          	jal	ra,15556 <__retarget_lock_release_recursive>
   12b82:	4621                	li	a2,8
   12b84:	00043023          	sd	zero,0(s0)
   12b88:	00043423          	sd	zero,8(s0)
   12b8c:	00043c23          	sd	zero,24(s0)
   12b90:	02042023          	sw	zero,32(s0)
   12b94:	02042423          	sw	zero,40(s0)
   12b98:	4581                	li	a1,0
   12b9a:	0a840513          	addi	a0,s0,168
   12b9e:	a1ffd0ef          	jal	ra,105bc <memset>
   12ba2:	04043c23          	sd	zero,88(s0)
   12ba6:	06042023          	sw	zero,96(s0)
   12baa:	06043c23          	sd	zero,120(s0)
   12bae:	08042023          	sw	zero,128(s0)
   12bb2:	70a2                	ld	ra,40(sp)
   12bb4:	8522                	mv	a0,s0
   12bb6:	7402                	ld	s0,32(sp)
   12bb8:	64e2                	ld	s1,24(sp)
   12bba:	6942                	ld	s2,16(sp)
   12bbc:	69a2                	ld	s3,8(sp)
   12bbe:	6a02                	ld	s4,0(sp)
   12bc0:	6145                	addi	sp,sp,48
   12bc2:	8082                	ret
   12bc4:	6080                	ld	s0,0(s1)
   12bc6:	c419                	beqz	s0,12bd4 <__sfp+0xbc>
   12bc8:	84a2                	mv	s1,s0
   12bca:	bfa5                	j	12b42 <__sfp+0x2a>
   12bcc:	8526                	mv	a0,s1
   12bce:	e01ff0ef          	jal	ra,129ce <__sinit>
   12bd2:	b79d                	j	12b38 <__sfp+0x20>
   12bd4:	2f800593          	li	a1,760
   12bd8:	854a                	mv	a0,s2
   12bda:	317020ef          	jal	ra,156f0 <_malloc_r>
   12bde:	842a                	mv	s0,a0
   12be0:	cd19                	beqz	a0,12bfe <__sfp+0xe6>
   12be2:	0561                	addi	a0,a0,24
   12be4:	00043023          	sd	zero,0(s0)
   12be8:	01442423          	sw	s4,8(s0)
   12bec:	e808                	sd	a0,16(s0)
   12bee:	2e000613          	li	a2,736
   12bf2:	4581                	li	a1,0
   12bf4:	9c9fd0ef          	jal	ra,105bc <memset>
   12bf8:	e080                	sd	s0,0(s1)
   12bfa:	84a2                	mv	s1,s0
   12bfc:	b799                	j	12b42 <__sfp+0x2a>
   12bfe:	0004b023          	sd	zero,0(s1)
   12c02:	76018513          	addi	a0,gp,1888 # 1fe78 <__lock___sfp_recursive_mutex>
   12c06:	151020ef          	jal	ra,15556 <__retarget_lock_release_recursive>
   12c0a:	47b1                	li	a5,12
   12c0c:	00f92023          	sw	a5,0(s2)
   12c10:	b74d                	j	12bb2 <__sfp+0x9a>

0000000000012c12 <__sfp_lock_acquire>:
   12c12:	76018513          	addi	a0,gp,1888 # 1fe78 <__lock___sfp_recursive_mutex>
   12c16:	1350206f          	j	1554a <__retarget_lock_acquire_recursive>

0000000000012c1a <__sfp_lock_release>:
   12c1a:	76018513          	addi	a0,gp,1888 # 1fe78 <__lock___sfp_recursive_mutex>
   12c1e:	1390206f          	j	15556 <__retarget_lock_release_recursive>

0000000000012c22 <__sinit_lock_acquire>:
   12c22:	76818513          	addi	a0,gp,1896 # 1fe80 <__lock___sinit_recursive_mutex>
   12c26:	1250206f          	j	1554a <__retarget_lock_acquire_recursive>

0000000000012c2a <__sinit_lock_release>:
   12c2a:	76818513          	addi	a0,gp,1896 # 1fe80 <__lock___sinit_recursive_mutex>
   12c2e:	1290206f          	j	15556 <__retarget_lock_release_recursive>

0000000000012c32 <__fp_lock_all>:
   12c32:	1141                	addi	sp,sp,-16
   12c34:	76018513          	addi	a0,gp,1888 # 1fe78 <__lock___sfp_recursive_mutex>
   12c38:	e406                	sd	ra,8(sp)
   12c3a:	111020ef          	jal	ra,1554a <__retarget_lock_acquire_recursive>
   12c3e:	60a2                	ld	ra,8(sp)
   12c40:	7081b503          	ld	a0,1800(gp) # 1fe20 <_impure_ptr>
   12c44:	00000597          	auipc	a1,0x0
   12c48:	ce258593          	addi	a1,a1,-798 # 12926 <__fp_lock>
   12c4c:	0141                	addi	sp,sp,16
   12c4e:	a555                	j	132f2 <_fwalk>

0000000000012c50 <__fp_unlock_all>:
   12c50:	7081b503          	ld	a0,1800(gp) # 1fe20 <_impure_ptr>
   12c54:	1141                	addi	sp,sp,-16
   12c56:	00000597          	auipc	a1,0x0
   12c5a:	cf858593          	addi	a1,a1,-776 # 1294e <__fp_unlock>
   12c5e:	e406                	sd	ra,8(sp)
   12c60:	692000ef          	jal	ra,132f2 <_fwalk>
   12c64:	60a2                	ld	ra,8(sp)
   12c66:	76018513          	addi	a0,gp,1888 # 1fe78 <__lock___sfp_recursive_mutex>
   12c6a:	0141                	addi	sp,sp,16
   12c6c:	0eb0206f          	j	15556 <__retarget_lock_release_recursive>

0000000000012c70 <__libc_fini_array>:
   12c70:	1101                	addi	sp,sp,-32
   12c72:	e822                	sd	s0,16(sp)
   12c74:	0000c797          	auipc	a5,0xc
   12c78:	05478793          	addi	a5,a5,84 # 1ecc8 <impure_data>
   12c7c:	0000c417          	auipc	s0,0xc
   12c80:	04440413          	addi	s0,s0,68 # 1ecc0 <__do_global_dtors_aux_fini_array_entry>
   12c84:	8f81                	sub	a5,a5,s0
   12c86:	e426                	sd	s1,8(sp)
   12c88:	ec06                	sd	ra,24(sp)
   12c8a:	4037d493          	srai	s1,a5,0x3
   12c8e:	c881                	beqz	s1,12c9e <__libc_fini_array+0x2e>
   12c90:	17e1                	addi	a5,a5,-8
   12c92:	943e                	add	s0,s0,a5
   12c94:	601c                	ld	a5,0(s0)
   12c96:	14fd                	addi	s1,s1,-1
   12c98:	1461                	addi	s0,s0,-8
   12c9a:	9782                	jalr	a5
   12c9c:	fce5                	bnez	s1,12c94 <__libc_fini_array+0x24>
   12c9e:	60e2                	ld	ra,24(sp)
   12ca0:	6442                	ld	s0,16(sp)
   12ca2:	64a2                	ld	s1,8(sp)
   12ca4:	6105                	addi	sp,sp,32
   12ca6:	8082                	ret

0000000000012ca8 <_malloc_trim_r>:
   12ca8:	7179                	addi	sp,sp,-48
   12caa:	f022                	sd	s0,32(sp)
   12cac:	ec26                	sd	s1,24(sp)
   12cae:	e84a                	sd	s2,16(sp)
   12cb0:	e44e                	sd	s3,8(sp)
   12cb2:	e052                	sd	s4,0(sp)
   12cb4:	89ae                	mv	s3,a1
   12cb6:	f406                	sd	ra,40(sp)
   12cb8:	0000ca17          	auipc	s4,0xc
   12cbc:	770a0a13          	addi	s4,s4,1904 # 1f428 <__malloc_av_>
   12cc0:	892a                	mv	s2,a0
   12cc2:	27e030ef          	jal	ra,15f40 <__malloc_lock>
   12cc6:	010a3703          	ld	a4,16(s4)
   12cca:	6785                	lui	a5,0x1
   12ccc:	fdf78413          	addi	s0,a5,-33 # fdf <main-0xf0d1>
   12cd0:	6704                	ld	s1,8(a4)
   12cd2:	41340433          	sub	s0,s0,s3
   12cd6:	98f1                	andi	s1,s1,-4
   12cd8:	9426                	add	s0,s0,s1
   12cda:	8031                	srli	s0,s0,0xc
   12cdc:	147d                	addi	s0,s0,-1
   12cde:	0432                	slli	s0,s0,0xc
   12ce0:	00f44b63          	blt	s0,a5,12cf6 <_malloc_trim_r+0x4e>
   12ce4:	4581                	li	a1,0
   12ce6:	854a                	mv	a0,s2
   12ce8:	4d6040ef          	jal	ra,171be <_sbrk_r>
   12cec:	010a3783          	ld	a5,16(s4)
   12cf0:	97a6                	add	a5,a5,s1
   12cf2:	00f50e63          	beq	a0,a5,12d0e <_malloc_trim_r+0x66>
   12cf6:	854a                	mv	a0,s2
   12cf8:	250030ef          	jal	ra,15f48 <__malloc_unlock>
   12cfc:	70a2                	ld	ra,40(sp)
   12cfe:	7402                	ld	s0,32(sp)
   12d00:	64e2                	ld	s1,24(sp)
   12d02:	6942                	ld	s2,16(sp)
   12d04:	69a2                	ld	s3,8(sp)
   12d06:	6a02                	ld	s4,0(sp)
   12d08:	4501                	li	a0,0
   12d0a:	6145                	addi	sp,sp,48
   12d0c:	8082                	ret
   12d0e:	408005b3          	neg	a1,s0
   12d12:	854a                	mv	a0,s2
   12d14:	4aa040ef          	jal	ra,171be <_sbrk_r>
   12d18:	57fd                	li	a5,-1
   12d1a:	02f50c63          	beq	a0,a5,12d52 <_malloc_trim_r+0xaa>
   12d1e:	0000d717          	auipc	a4,0xd
   12d22:	1d270713          	addi	a4,a4,466 # 1fef0 <__malloc_current_mallinfo>
   12d26:	431c                	lw	a5,0(a4)
   12d28:	010a3683          	ld	a3,16(s4)
   12d2c:	8c81                	sub	s1,s1,s0
   12d2e:	0014e493          	ori	s1,s1,1
   12d32:	4087843b          	subw	s0,a5,s0
   12d36:	854a                	mv	a0,s2
   12d38:	e684                	sd	s1,8(a3)
   12d3a:	c300                	sw	s0,0(a4)
   12d3c:	20c030ef          	jal	ra,15f48 <__malloc_unlock>
   12d40:	70a2                	ld	ra,40(sp)
   12d42:	7402                	ld	s0,32(sp)
   12d44:	64e2                	ld	s1,24(sp)
   12d46:	6942                	ld	s2,16(sp)
   12d48:	69a2                	ld	s3,8(sp)
   12d4a:	6a02                	ld	s4,0(sp)
   12d4c:	4505                	li	a0,1
   12d4e:	6145                	addi	sp,sp,48
   12d50:	8082                	ret
   12d52:	4581                	li	a1,0
   12d54:	854a                	mv	a0,s2
   12d56:	468040ef          	jal	ra,171be <_sbrk_r>
   12d5a:	010a3703          	ld	a4,16(s4)
   12d5e:	46fd                	li	a3,31
   12d60:	40e507b3          	sub	a5,a0,a4
   12d64:	f8f6d9e3          	bge	a3,a5,12cf6 <_malloc_trim_r+0x4e>
   12d68:	0017e793          	ori	a5,a5,1
   12d6c:	e71c                	sd	a5,8(a4)
   12d6e:	7181b783          	ld	a5,1816(gp) # 1fe30 <__malloc_sbrk_base>
   12d72:	8d1d                	sub	a0,a0,a5
   12d74:	0000d797          	auipc	a5,0xd
   12d78:	16a7ae23          	sw	a0,380(a5) # 1fef0 <__malloc_current_mallinfo>
   12d7c:	bfad                	j	12cf6 <_malloc_trim_r+0x4e>

0000000000012d7e <_free_r>:
   12d7e:	c5f5                	beqz	a1,12e6a <_free_r+0xec>
   12d80:	1101                	addi	sp,sp,-32
   12d82:	e822                	sd	s0,16(sp)
   12d84:	e426                	sd	s1,8(sp)
   12d86:	842e                	mv	s0,a1
   12d88:	84aa                	mv	s1,a0
   12d8a:	ec06                	sd	ra,24(sp)
   12d8c:	1b4030ef          	jal	ra,15f40 <__malloc_lock>
   12d90:	ff843583          	ld	a1,-8(s0)
   12d94:	ff040713          	addi	a4,s0,-16
   12d98:	0000c517          	auipc	a0,0xc
   12d9c:	69050513          	addi	a0,a0,1680 # 1f428 <__malloc_av_>
   12da0:	ffe5f793          	andi	a5,a1,-2
   12da4:	00f70633          	add	a2,a4,a5
   12da8:	6614                	ld	a3,8(a2)
   12daa:	01053803          	ld	a6,16(a0)
   12dae:	9af1                	andi	a3,a3,-4
   12db0:	14c80063          	beq	a6,a2,12ef0 <_free_r+0x172>
   12db4:	e614                	sd	a3,8(a2)
   12db6:	8985                	andi	a1,a1,1
   12db8:	00d60833          	add	a6,a2,a3
   12dbc:	e1c1                	bnez	a1,12e3c <_free_r+0xbe>
   12dbe:	ff043303          	ld	t1,-16(s0)
   12dc2:	00883583          	ld	a1,8(a6)
   12dc6:	0000c897          	auipc	a7,0xc
   12dca:	67288893          	addi	a7,a7,1650 # 1f438 <__malloc_av_+0x10>
   12dce:	40670733          	sub	a4,a4,t1
   12dd2:	01073803          	ld	a6,16(a4)
   12dd6:	979a                	add	a5,a5,t1
   12dd8:	8985                	andi	a1,a1,1
   12dda:	0f180863          	beq	a6,a7,12eca <_free_r+0x14c>
   12dde:	01873303          	ld	t1,24(a4)
   12de2:	00683c23          	sd	t1,24(a6)
   12de6:	01033823          	sd	a6,16(t1)
   12dea:	14058d63          	beqz	a1,12f44 <_free_r+0x1c6>
   12dee:	0017e693          	ori	a3,a5,1
   12df2:	e714                	sd	a3,8(a4)
   12df4:	e21c                	sd	a5,0(a2)
   12df6:	1ff00693          	li	a3,511
   12dfa:	08f6e263          	bltu	a3,a5,12e7e <_free_r+0x100>
   12dfe:	838d                	srli	a5,a5,0x3
   12e00:	0017869b          	addiw	a3,a5,1
   12e04:	0016969b          	slliw	a3,a3,0x1
   12e08:	068e                	slli	a3,a3,0x3
   12e0a:	00853803          	ld	a6,8(a0)
   12e0e:	96aa                	add	a3,a3,a0
   12e10:	628c                	ld	a1,0(a3)
   12e12:	4027d61b          	sraiw	a2,a5,0x2
   12e16:	4785                	li	a5,1
   12e18:	00c797b3          	sll	a5,a5,a2
   12e1c:	0107e7b3          	or	a5,a5,a6
   12e20:	ff068613          	addi	a2,a3,-16 # ff0 <main-0xf0c0>
   12e24:	ef10                	sd	a2,24(a4)
   12e26:	eb0c                	sd	a1,16(a4)
   12e28:	e51c                	sd	a5,8(a0)
   12e2a:	e298                	sd	a4,0(a3)
   12e2c:	ed98                	sd	a4,24(a1)
   12e2e:	6442                	ld	s0,16(sp)
   12e30:	60e2                	ld	ra,24(sp)
   12e32:	8526                	mv	a0,s1
   12e34:	64a2                	ld	s1,8(sp)
   12e36:	6105                	addi	sp,sp,32
   12e38:	1100306f          	j	15f48 <__malloc_unlock>
   12e3c:	00883583          	ld	a1,8(a6)
   12e40:	8985                	andi	a1,a1,1
   12e42:	e58d                	bnez	a1,12e6c <_free_r+0xee>
   12e44:	97b6                	add	a5,a5,a3
   12e46:	0000c897          	auipc	a7,0xc
   12e4a:	5f288893          	addi	a7,a7,1522 # 1f438 <__malloc_av_+0x10>
   12e4e:	6a14                	ld	a3,16(a2)
   12e50:	0017e813          	ori	a6,a5,1
   12e54:	00f705b3          	add	a1,a4,a5
   12e58:	11168063          	beq	a3,a7,12f58 <_free_r+0x1da>
   12e5c:	6e10                	ld	a2,24(a2)
   12e5e:	ee90                	sd	a2,24(a3)
   12e60:	ea14                	sd	a3,16(a2)
   12e62:	01073423          	sd	a6,8(a4)
   12e66:	e19c                	sd	a5,0(a1)
   12e68:	b779                	j	12df6 <_free_r+0x78>
   12e6a:	8082                	ret
   12e6c:	0017e693          	ori	a3,a5,1
   12e70:	fed43c23          	sd	a3,-8(s0)
   12e74:	e21c                	sd	a5,0(a2)
   12e76:	1ff00693          	li	a3,511
   12e7a:	f8f6f2e3          	bgeu	a3,a5,12dfe <_free_r+0x80>
   12e7e:	0097d693          	srli	a3,a5,0x9
   12e82:	4611                	li	a2,4
   12e84:	08d66f63          	bltu	a2,a3,12f22 <_free_r+0x1a4>
   12e88:	0067d693          	srli	a3,a5,0x6
   12e8c:	0396859b          	addiw	a1,a3,57
   12e90:	0015959b          	slliw	a1,a1,0x1
   12e94:	0386861b          	addiw	a2,a3,56
   12e98:	058e                	slli	a1,a1,0x3
   12e9a:	95aa                	add	a1,a1,a0
   12e9c:	6194                	ld	a3,0(a1)
   12e9e:	15c1                	addi	a1,a1,-16
   12ea0:	0cd58663          	beq	a1,a3,12f6c <_free_r+0x1ee>
   12ea4:	6690                	ld	a2,8(a3)
   12ea6:	9a71                	andi	a2,a2,-4
   12ea8:	00c7f563          	bgeu	a5,a2,12eb2 <_free_r+0x134>
   12eac:	6a94                	ld	a3,16(a3)
   12eae:	fed59be3          	bne	a1,a3,12ea4 <_free_r+0x126>
   12eb2:	6e8c                	ld	a1,24(a3)
   12eb4:	ef0c                	sd	a1,24(a4)
   12eb6:	eb14                	sd	a3,16(a4)
   12eb8:	6442                	ld	s0,16(sp)
   12eba:	60e2                	ld	ra,24(sp)
   12ebc:	e998                	sd	a4,16(a1)
   12ebe:	8526                	mv	a0,s1
   12ec0:	64a2                	ld	s1,8(sp)
   12ec2:	ee98                	sd	a4,24(a3)
   12ec4:	6105                	addi	sp,sp,32
   12ec6:	0820306f          	j	15f48 <__malloc_unlock>
   12eca:	0e059d63          	bnez	a1,12fc4 <_free_r+0x246>
   12ece:	6e0c                	ld	a1,24(a2)
   12ed0:	6a10                	ld	a2,16(a2)
   12ed2:	97b6                	add	a5,a5,a3
   12ed4:	6442                	ld	s0,16(sp)
   12ed6:	ee0c                	sd	a1,24(a2)
   12ed8:	e990                	sd	a2,16(a1)
   12eda:	0017e693          	ori	a3,a5,1
   12ede:	60e2                	ld	ra,24(sp)
   12ee0:	e714                	sd	a3,8(a4)
   12ee2:	8526                	mv	a0,s1
   12ee4:	973e                	add	a4,a4,a5
   12ee6:	64a2                	ld	s1,8(sp)
   12ee8:	e31c                	sd	a5,0(a4)
   12eea:	6105                	addi	sp,sp,32
   12eec:	05c0306f          	j	15f48 <__malloc_unlock>
   12ef0:	8985                	andi	a1,a1,1
   12ef2:	97b6                	add	a5,a5,a3
   12ef4:	e989                	bnez	a1,12f06 <_free_r+0x188>
   12ef6:	ff043583          	ld	a1,-16(s0)
   12efa:	8f0d                	sub	a4,a4,a1
   12efc:	6f14                	ld	a3,24(a4)
   12efe:	6b10                	ld	a2,16(a4)
   12f00:	97ae                	add	a5,a5,a1
   12f02:	ee14                	sd	a3,24(a2)
   12f04:	ea90                	sd	a2,16(a3)
   12f06:	0017e613          	ori	a2,a5,1
   12f0a:	7201b683          	ld	a3,1824(gp) # 1fe38 <__malloc_trim_threshold>
   12f0e:	e710                	sd	a2,8(a4)
   12f10:	e918                	sd	a4,16(a0)
   12f12:	f0d7eee3          	bltu	a5,a3,12e2e <_free_r+0xb0>
   12f16:	7801b583          	ld	a1,1920(gp) # 1fe98 <__malloc_top_pad>
   12f1a:	8526                	mv	a0,s1
   12f1c:	d8dff0ef          	jal	ra,12ca8 <_malloc_trim_r>
   12f20:	b739                	j	12e2e <_free_r+0xb0>
   12f22:	4651                	li	a2,20
   12f24:	02d67263          	bgeu	a2,a3,12f48 <_free_r+0x1ca>
   12f28:	05400613          	li	a2,84
   12f2c:	04d66b63          	bltu	a2,a3,12f82 <_free_r+0x204>
   12f30:	00c7d693          	srli	a3,a5,0xc
   12f34:	06f6859b          	addiw	a1,a3,111
   12f38:	0015959b          	slliw	a1,a1,0x1
   12f3c:	06e6861b          	addiw	a2,a3,110
   12f40:	058e                	slli	a1,a1,0x3
   12f42:	bfa1                	j	12e9a <_free_r+0x11c>
   12f44:	97b6                	add	a5,a5,a3
   12f46:	b721                	j	12e4e <_free_r+0xd0>
   12f48:	05c6859b          	addiw	a1,a3,92
   12f4c:	0015959b          	slliw	a1,a1,0x1
   12f50:	05b6861b          	addiw	a2,a3,91
   12f54:	058e                	slli	a1,a1,0x3
   12f56:	b791                	j	12e9a <_free_r+0x11c>
   12f58:	f518                	sd	a4,40(a0)
   12f5a:	f118                	sd	a4,32(a0)
   12f5c:	01173c23          	sd	a7,24(a4)
   12f60:	01173823          	sd	a7,16(a4)
   12f64:	01073423          	sd	a6,8(a4)
   12f68:	e19c                	sd	a5,0(a1)
   12f6a:	b5d1                	j	12e2e <_free_r+0xb0>
   12f6c:	00853803          	ld	a6,8(a0)
   12f70:	4026561b          	sraiw	a2,a2,0x2
   12f74:	4785                	li	a5,1
   12f76:	00c79633          	sll	a2,a5,a2
   12f7a:	01066633          	or	a2,a2,a6
   12f7e:	e510                	sd	a2,8(a0)
   12f80:	bf15                	j	12eb4 <_free_r+0x136>
   12f82:	15400613          	li	a2,340
   12f86:	00d66c63          	bltu	a2,a3,12f9e <_free_r+0x220>
   12f8a:	00f7d693          	srli	a3,a5,0xf
   12f8e:	0786859b          	addiw	a1,a3,120
   12f92:	0015959b          	slliw	a1,a1,0x1
   12f96:	0776861b          	addiw	a2,a3,119
   12f9a:	058e                	slli	a1,a1,0x3
   12f9c:	bdfd                	j	12e9a <_free_r+0x11c>
   12f9e:	55400613          	li	a2,1364
   12fa2:	00d66c63          	bltu	a2,a3,12fba <_free_r+0x23c>
   12fa6:	0127d693          	srli	a3,a5,0x12
   12faa:	07d6859b          	addiw	a1,a3,125
   12fae:	0015959b          	slliw	a1,a1,0x1
   12fb2:	07c6861b          	addiw	a2,a3,124
   12fb6:	058e                	slli	a1,a1,0x3
   12fb8:	b5cd                	j	12e9a <_free_r+0x11c>
   12fba:	7f000593          	li	a1,2032
   12fbe:	07e00613          	li	a2,126
   12fc2:	bde1                	j	12e9a <_free_r+0x11c>
   12fc4:	0017e693          	ori	a3,a5,1
   12fc8:	e714                	sd	a3,8(a4)
   12fca:	e21c                	sd	a5,0(a2)
   12fcc:	b58d                	j	12e2e <_free_r+0xb0>

0000000000012fce <__sfvwrite_r>:
   12fce:	6a1c                	ld	a5,16(a2)
   12fd0:	14078463          	beqz	a5,13118 <__sfvwrite_r+0x14a>
   12fd4:	0105d683          	lhu	a3,16(a1)
   12fd8:	711d                	addi	sp,sp,-96
   12fda:	e8a2                	sd	s0,80(sp)
   12fdc:	f852                	sd	s4,48(sp)
   12fde:	f456                	sd	s5,40(sp)
   12fe0:	ec86                	sd	ra,88(sp)
   12fe2:	e4a6                	sd	s1,72(sp)
   12fe4:	e0ca                	sd	s2,64(sp)
   12fe6:	fc4e                	sd	s3,56(sp)
   12fe8:	f05a                	sd	s6,32(sp)
   12fea:	ec5e                	sd	s7,24(sp)
   12fec:	e862                	sd	s8,16(sp)
   12fee:	e466                	sd	s9,8(sp)
   12ff0:	e06a                	sd	s10,0(sp)
   12ff2:	0086f793          	andi	a5,a3,8
   12ff6:	8a32                	mv	s4,a2
   12ff8:	8aaa                	mv	s5,a0
   12ffa:	842e                	mv	s0,a1
   12ffc:	c3bd                	beqz	a5,13062 <__sfvwrite_r+0x94>
   12ffe:	6d9c                	ld	a5,24(a1)
   13000:	c3ad                	beqz	a5,13062 <__sfvwrite_r+0x94>
   13002:	0026f793          	andi	a5,a3,2
   13006:	000a3903          	ld	s2,0(s4)
   1300a:	cbad                	beqz	a5,1307c <__sfvwrite_r+0xae>
   1300c:	80000b37          	lui	s6,0x80000
   13010:	4981                	li	s3,0
   13012:	4481                	li	s1,0
   13014:	c00b4b13          	xori	s6,s6,-1024
   13018:	864e                	mv	a2,s3
   1301a:	8556                	mv	a0,s5
   1301c:	c8f9                	beqz	s1,130f2 <__sfvwrite_r+0x124>
   1301e:	86a6                	mv	a3,s1
   13020:	009b7363          	bgeu	s6,s1,13026 <__sfvwrite_r+0x58>
   13024:	86da                	mv	a3,s6
   13026:	603c                	ld	a5,64(s0)
   13028:	780c                	ld	a1,48(s0)
   1302a:	2681                	sext.w	a3,a3
   1302c:	9782                	jalr	a5
   1302e:	0ca05d63          	blez	a0,13108 <__sfvwrite_r+0x13a>
   13032:	010a3783          	ld	a5,16(s4)
   13036:	99aa                	add	s3,s3,a0
   13038:	8c89                	sub	s1,s1,a0
   1303a:	40a78533          	sub	a0,a5,a0
   1303e:	00aa3823          	sd	a0,16(s4)
   13042:	f979                	bnez	a0,13018 <__sfvwrite_r+0x4a>
   13044:	4501                	li	a0,0
   13046:	60e6                	ld	ra,88(sp)
   13048:	6446                	ld	s0,80(sp)
   1304a:	64a6                	ld	s1,72(sp)
   1304c:	6906                	ld	s2,64(sp)
   1304e:	79e2                	ld	s3,56(sp)
   13050:	7a42                	ld	s4,48(sp)
   13052:	7aa2                	ld	s5,40(sp)
   13054:	7b02                	ld	s6,32(sp)
   13056:	6be2                	ld	s7,24(sp)
   13058:	6c42                	ld	s8,16(sp)
   1305a:	6ca2                	ld	s9,8(sp)
   1305c:	6d02                	ld	s10,0(sp)
   1305e:	6125                	addi	sp,sp,96
   13060:	8082                	ret
   13062:	85a2                	mv	a1,s0
   13064:	8556                	mv	a0,s5
   13066:	c3eff0ef          	jal	ra,124a4 <__swsetup_r>
   1306a:	28051263          	bnez	a0,132ee <__sfvwrite_r+0x320>
   1306e:	01045683          	lhu	a3,16(s0)
   13072:	000a3903          	ld	s2,0(s4)
   13076:	0026f793          	andi	a5,a3,2
   1307a:	fbc9                	bnez	a5,1300c <__sfvwrite_r+0x3e>
   1307c:	0016f793          	andi	a5,a3,1
   13080:	efd1                	bnez	a5,1311c <__sfvwrite_r+0x14e>
   13082:	4444                	lw	s1,12(s0)
   13084:	80000b37          	lui	s6,0x80000
   13088:	ffeb4b93          	xori	s7,s6,-2
   1308c:	4c01                	li	s8,0
   1308e:	4981                	li	s3,0
   13090:	fffb4b13          	not	s6,s6
   13094:	8ca6                	mv	s9,s1
   13096:	04098863          	beqz	s3,130e6 <__sfvwrite_r+0x118>
   1309a:	2006f793          	andi	a5,a3,512
   1309e:	6008                	ld	a0,0(s0)
   130a0:	12078363          	beqz	a5,131c6 <__sfvwrite_r+0x1f8>
   130a4:	8d26                	mv	s10,s1
   130a6:	1899f163          	bgeu	s3,s1,13228 <__sfvwrite_r+0x25a>
   130aa:	8cce                	mv	s9,s3
   130ac:	8d4e                	mv	s10,s3
   130ae:	866a                	mv	a2,s10
   130b0:	85e2                	mv	a1,s8
   130b2:	5b9020ef          	jal	ra,15e6a <memmove>
   130b6:	4458                	lw	a4,12(s0)
   130b8:	601c                	ld	a5,0(s0)
   130ba:	84ce                	mv	s1,s3
   130bc:	41970cbb          	subw	s9,a4,s9
   130c0:	97ea                	add	a5,a5,s10
   130c2:	01942623          	sw	s9,12(s0)
   130c6:	e01c                	sd	a5,0(s0)
   130c8:	4981                	li	s3,0
   130ca:	010a3603          	ld	a2,16(s4)
   130ce:	9c26                	add	s8,s8,s1
   130d0:	409604b3          	sub	s1,a2,s1
   130d4:	009a3823          	sd	s1,16(s4)
   130d8:	d4b5                	beqz	s1,13044 <__sfvwrite_r+0x76>
   130da:	4444                	lw	s1,12(s0)
   130dc:	01045683          	lhu	a3,16(s0)
   130e0:	8ca6                	mv	s9,s1
   130e2:	fa099ce3          	bnez	s3,1309a <__sfvwrite_r+0xcc>
   130e6:	00093c03          	ld	s8,0(s2)
   130ea:	00893983          	ld	s3,8(s2)
   130ee:	0941                	addi	s2,s2,16
   130f0:	b755                	j	13094 <__sfvwrite_r+0xc6>
   130f2:	00093983          	ld	s3,0(s2)
   130f6:	00893483          	ld	s1,8(s2)
   130fa:	0941                	addi	s2,s2,16
   130fc:	bf31                	j	13018 <__sfvwrite_r+0x4a>
   130fe:	85a2                	mv	a1,s0
   13100:	8556                	mv	a0,s5
   13102:	f0cff0ef          	jal	ra,1280e <_fflush_r>
   13106:	c135                	beqz	a0,1316a <__sfvwrite_r+0x19c>
   13108:	01041783          	lh	a5,16(s0)
   1310c:	0407e793          	ori	a5,a5,64
   13110:	00f41823          	sh	a5,16(s0)
   13114:	557d                	li	a0,-1
   13116:	bf05                	j	13046 <__sfvwrite_r+0x78>
   13118:	4501                	li	a0,0
   1311a:	8082                	ret
   1311c:	4c01                	li	s8,0
   1311e:	4981                	li	s3,0
   13120:	4501                	li	a0,0
   13122:	4c81                	li	s9,0
   13124:	060c0063          	beqz	s8,13184 <__sfvwrite_r+0x1b6>
   13128:	c52d                	beqz	a0,13192 <__sfvwrite_r+0x1c4>
   1312a:	8bce                	mv	s7,s3
   1312c:	013c7363          	bgeu	s8,s3,13132 <__sfvwrite_r+0x164>
   13130:	8be2                	mv	s7,s8
   13132:	6008                	ld	a0,0(s0)
   13134:	6c1c                	ld	a5,24(s0)
   13136:	5014                	lw	a3,32(s0)
   13138:	84de                	mv	s1,s7
   1313a:	00a7f763          	bgeu	a5,a0,13148 <__sfvwrite_r+0x17a>
   1313e:	445c                	lw	a5,12(s0)
   13140:	00d78b3b          	addw	s6,a5,a3
   13144:	077b4263          	blt	s6,s7,131a8 <__sfvwrite_r+0x1da>
   13148:	14dbca63          	blt	s7,a3,1329c <__sfvwrite_r+0x2ce>
   1314c:	603c                	ld	a5,64(s0)
   1314e:	780c                	ld	a1,48(s0)
   13150:	8666                	mv	a2,s9
   13152:	8556                	mv	a0,s5
   13154:	9782                	jalr	a5
   13156:	84aa                	mv	s1,a0
   13158:	faa058e3          	blez	a0,13108 <__sfvwrite_r+0x13a>
   1315c:	0005079b          	sext.w	a5,a0
   13160:	40f989bb          	subw	s3,s3,a5
   13164:	4505                	li	a0,1
   13166:	f8098ce3          	beqz	s3,130fe <__sfvwrite_r+0x130>
   1316a:	010a3783          	ld	a5,16(s4)
   1316e:	9ca6                	add	s9,s9,s1
   13170:	409c0c33          	sub	s8,s8,s1
   13174:	409784b3          	sub	s1,a5,s1
   13178:	009a3823          	sd	s1,16(s4)
   1317c:	ec0484e3          	beqz	s1,13044 <__sfvwrite_r+0x76>
   13180:	fa0c14e3          	bnez	s8,13128 <__sfvwrite_r+0x15a>
   13184:	00893c03          	ld	s8,8(s2)
   13188:	00093c83          	ld	s9,0(s2)
   1318c:	0941                	addi	s2,s2,16
   1318e:	fe0c0be3          	beqz	s8,13184 <__sfvwrite_r+0x1b6>
   13192:	8662                	mv	a2,s8
   13194:	45a9                	li	a1,10
   13196:	8566                	mv	a0,s9
   13198:	37f020ef          	jal	ra,15d16 <memchr>
   1319c:	14050063          	beqz	a0,132dc <__sfvwrite_r+0x30e>
   131a0:	0505                	addi	a0,a0,1
   131a2:	419509bb          	subw	s3,a0,s9
   131a6:	b751                	j	1312a <__sfvwrite_r+0x15c>
   131a8:	85e6                	mv	a1,s9
   131aa:	865a                	mv	a2,s6
   131ac:	4bf020ef          	jal	ra,15e6a <memmove>
   131b0:	601c                	ld	a5,0(s0)
   131b2:	85a2                	mv	a1,s0
   131b4:	8556                	mv	a0,s5
   131b6:	97da                	add	a5,a5,s6
   131b8:	e01c                	sd	a5,0(s0)
   131ba:	e54ff0ef          	jal	ra,1280e <_fflush_r>
   131be:	f529                	bnez	a0,13108 <__sfvwrite_r+0x13a>
   131c0:	87da                	mv	a5,s6
   131c2:	84da                	mv	s1,s6
   131c4:	bf71                	j	13160 <__sfvwrite_r+0x192>
   131c6:	6c1c                	ld	a5,24(s0)
   131c8:	02a7e863          	bltu	a5,a0,131f8 <__sfvwrite_r+0x22a>
   131cc:	501c                	lw	a5,32(s0)
   131ce:	02f9e563          	bltu	s3,a5,131f8 <__sfvwrite_r+0x22a>
   131d2:	86ce                	mv	a3,s3
   131d4:	013bf363          	bgeu	s7,s3,131da <__sfvwrite_r+0x20c>
   131d8:	86da                	mv	a3,s6
   131da:	02f6c6bb          	divw	a3,a3,a5
   131de:	6038                	ld	a4,64(s0)
   131e0:	780c                	ld	a1,48(s0)
   131e2:	8662                	mv	a2,s8
   131e4:	8556                	mv	a0,s5
   131e6:	02f686bb          	mulw	a3,a3,a5
   131ea:	9702                	jalr	a4
   131ec:	84aa                	mv	s1,a0
   131ee:	f0a05de3          	blez	a0,13108 <__sfvwrite_r+0x13a>
   131f2:	409989b3          	sub	s3,s3,s1
   131f6:	bdd1                	j	130ca <__sfvwrite_r+0xfc>
   131f8:	0099f363          	bgeu	s3,s1,131fe <__sfvwrite_r+0x230>
   131fc:	84ce                	mv	s1,s3
   131fe:	8626                	mv	a2,s1
   13200:	85e2                	mv	a1,s8
   13202:	469020ef          	jal	ra,15e6a <memmove>
   13206:	445c                	lw	a5,12(s0)
   13208:	6018                	ld	a4,0(s0)
   1320a:	409786bb          	subw	a3,a5,s1
   1320e:	9726                	add	a4,a4,s1
   13210:	c454                	sw	a3,12(s0)
   13212:	e018                	sd	a4,0(s0)
   13214:	fef9                	bnez	a3,131f2 <__sfvwrite_r+0x224>
   13216:	85a2                	mv	a1,s0
   13218:	8556                	mv	a0,s5
   1321a:	df4ff0ef          	jal	ra,1280e <_fflush_r>
   1321e:	ee0515e3          	bnez	a0,13108 <__sfvwrite_r+0x13a>
   13222:	409989b3          	sub	s3,s3,s1
   13226:	b555                	j	130ca <__sfvwrite_r+0xfc>
   13228:	4806f793          	andi	a5,a3,1152
   1322c:	e80781e3          	beqz	a5,130ae <__sfvwrite_r+0xe0>
   13230:	5018                	lw	a4,32(s0)
   13232:	6c0c                	ld	a1,24(s0)
   13234:	0017149b          	slliw	s1,a4,0x1
   13238:	9f25                	addw	a4,a4,s1
   1323a:	8d0d                	sub	a0,a0,a1
   1323c:	01f7549b          	srliw	s1,a4,0x1f
   13240:	00050d1b          	sext.w	s10,a0
   13244:	9cb9                	addw	s1,s1,a4
   13246:	001d0713          	addi	a4,s10,1
   1324a:	4014d49b          	sraiw	s1,s1,0x1
   1324e:	974e                	add	a4,a4,s3
   13250:	00e4f563          	bgeu	s1,a4,1325a <__sfvwrite_r+0x28c>
   13254:	2505                	addiw	a0,a0,1
   13256:	013504bb          	addw	s1,a0,s3
   1325a:	4006f693          	andi	a3,a3,1024
   1325e:	cea9                	beqz	a3,132b8 <__sfvwrite_r+0x2ea>
   13260:	85a6                	mv	a1,s1
   13262:	8556                	mv	a0,s5
   13264:	48c020ef          	jal	ra,156f0 <_malloc_r>
   13268:	8caa                	mv	s9,a0
   1326a:	cd25                	beqz	a0,132e2 <__sfvwrite_r+0x314>
   1326c:	6c0c                	ld	a1,24(s0)
   1326e:	866a                	mv	a2,s10
   13270:	33d020ef          	jal	ra,15dac <memcpy>
   13274:	01045783          	lhu	a5,16(s0)
   13278:	b7f7f793          	andi	a5,a5,-1153
   1327c:	0807e793          	ori	a5,a5,128
   13280:	00f41823          	sh	a5,16(s0)
   13284:	01ac8533          	add	a0,s9,s10
   13288:	41a487bb          	subw	a5,s1,s10
   1328c:	01943c23          	sd	s9,24(s0)
   13290:	e008                	sd	a0,0(s0)
   13292:	d004                	sw	s1,32(s0)
   13294:	8cce                	mv	s9,s3
   13296:	c45c                	sw	a5,12(s0)
   13298:	8d4e                	mv	s10,s3
   1329a:	bd11                	j	130ae <__sfvwrite_r+0xe0>
   1329c:	865e                	mv	a2,s7
   1329e:	85e6                	mv	a1,s9
   132a0:	3cb020ef          	jal	ra,15e6a <memmove>
   132a4:	4454                	lw	a3,12(s0)
   132a6:	6018                	ld	a4,0(s0)
   132a8:	000b879b          	sext.w	a5,s7
   132ac:	417686bb          	subw	a3,a3,s7
   132b0:	975e                	add	a4,a4,s7
   132b2:	c454                	sw	a3,12(s0)
   132b4:	e018                	sd	a4,0(s0)
   132b6:	b56d                	j	13160 <__sfvwrite_r+0x192>
   132b8:	8626                	mv	a2,s1
   132ba:	8556                	mv	a0,s5
   132bc:	29b030ef          	jal	ra,16d56 <_realloc_r>
   132c0:	8caa                	mv	s9,a0
   132c2:	f169                	bnez	a0,13284 <__sfvwrite_r+0x2b6>
   132c4:	6c0c                	ld	a1,24(s0)
   132c6:	8556                	mv	a0,s5
   132c8:	ab7ff0ef          	jal	ra,12d7e <_free_r>
   132cc:	01041783          	lh	a5,16(s0)
   132d0:	4731                	li	a4,12
   132d2:	00eaa023          	sw	a4,0(s5)
   132d6:	f7f7f793          	andi	a5,a5,-129
   132da:	bd0d                	j	1310c <__sfvwrite_r+0x13e>
   132dc:	001c099b          	addiw	s3,s8,1
   132e0:	b5a9                	j	1312a <__sfvwrite_r+0x15c>
   132e2:	4731                	li	a4,12
   132e4:	01041783          	lh	a5,16(s0)
   132e8:	00eaa023          	sw	a4,0(s5)
   132ec:	b505                	j	1310c <__sfvwrite_r+0x13e>
   132ee:	557d                	li	a0,-1
   132f0:	bb99                	j	13046 <__sfvwrite_r+0x78>

00000000000132f2 <_fwalk>:
   132f2:	715d                	addi	sp,sp,-80
   132f4:	f84a                	sd	s2,48(sp)
   132f6:	f44e                	sd	s3,40(sp)
   132f8:	f052                	sd	s4,32(sp)
   132fa:	ec56                	sd	s5,24(sp)
   132fc:	e85a                	sd	s6,16(sp)
   132fe:	e45e                	sd	s7,8(sp)
   13300:	e486                	sd	ra,72(sp)
   13302:	e0a2                	sd	s0,64(sp)
   13304:	fc26                	sd	s1,56(sp)
   13306:	8a2e                	mv	s4,a1
   13308:	52050913          	addi	s2,a0,1312
   1330c:	4b01                	li	s6,0
   1330e:	0b800a93          	li	s5,184
   13312:	4b85                	li	s7,1
   13314:	59fd                	li	s3,-1
   13316:	00892783          	lw	a5,8(s2)
   1331a:	01093403          	ld	s0,16(s2)
   1331e:	02f05b63          	blez	a5,13354 <_fwalk+0x62>
   13322:	fff7849b          	addiw	s1,a5,-1
   13326:	1482                	slli	s1,s1,0x20
   13328:	9081                	srli	s1,s1,0x20
   1332a:	0485                	addi	s1,s1,1
   1332c:	035484b3          	mul	s1,s1,s5
   13330:	94a2                	add	s1,s1,s0
   13332:	01045783          	lhu	a5,16(s0)
   13336:	00fbfb63          	bgeu	s7,a5,1334c <_fwalk+0x5a>
   1333a:	01241783          	lh	a5,18(s0)
   1333e:	8522                	mv	a0,s0
   13340:	01378663          	beq	a5,s3,1334c <_fwalk+0x5a>
   13344:	9a02                	jalr	s4
   13346:	01656b33          	or	s6,a0,s6
   1334a:	2b01                	sext.w	s6,s6
   1334c:	0b840413          	addi	s0,s0,184
   13350:	fe8491e3          	bne	s1,s0,13332 <_fwalk+0x40>
   13354:	00093903          	ld	s2,0(s2)
   13358:	fa091fe3          	bnez	s2,13316 <_fwalk+0x24>
   1335c:	60a6                	ld	ra,72(sp)
   1335e:	6406                	ld	s0,64(sp)
   13360:	74e2                	ld	s1,56(sp)
   13362:	7942                	ld	s2,48(sp)
   13364:	79a2                	ld	s3,40(sp)
   13366:	7a02                	ld	s4,32(sp)
   13368:	6ae2                	ld	s5,24(sp)
   1336a:	6ba2                	ld	s7,8(sp)
   1336c:	855a                	mv	a0,s6
   1336e:	6b42                	ld	s6,16(sp)
   13370:	6161                	addi	sp,sp,80
   13372:	8082                	ret

0000000000013374 <_fwalk_reent>:
   13374:	715d                	addi	sp,sp,-80
   13376:	f84a                	sd	s2,48(sp)
   13378:	f44e                	sd	s3,40(sp)
   1337a:	f052                	sd	s4,32(sp)
   1337c:	ec56                	sd	s5,24(sp)
   1337e:	e85a                	sd	s6,16(sp)
   13380:	e45e                	sd	s7,8(sp)
   13382:	e062                	sd	s8,0(sp)
   13384:	e486                	sd	ra,72(sp)
   13386:	e0a2                	sd	s0,64(sp)
   13388:	fc26                	sd	s1,56(sp)
   1338a:	8c2a                	mv	s8,a0
   1338c:	8a2e                	mv	s4,a1
   1338e:	52050913          	addi	s2,a0,1312
   13392:	4b01                	li	s6,0
   13394:	0b800a93          	li	s5,184
   13398:	4b85                	li	s7,1
   1339a:	59fd                	li	s3,-1
   1339c:	00892783          	lw	a5,8(s2)
   133a0:	01093403          	ld	s0,16(s2)
   133a4:	02f05c63          	blez	a5,133dc <_fwalk_reent+0x68>
   133a8:	fff7849b          	addiw	s1,a5,-1
   133ac:	1482                	slli	s1,s1,0x20
   133ae:	9081                	srli	s1,s1,0x20
   133b0:	0485                	addi	s1,s1,1
   133b2:	035484b3          	mul	s1,s1,s5
   133b6:	94a2                	add	s1,s1,s0
   133b8:	01045783          	lhu	a5,16(s0)
   133bc:	00fbfc63          	bgeu	s7,a5,133d4 <_fwalk_reent+0x60>
   133c0:	01241783          	lh	a5,18(s0)
   133c4:	85a2                	mv	a1,s0
   133c6:	8562                	mv	a0,s8
   133c8:	01378663          	beq	a5,s3,133d4 <_fwalk_reent+0x60>
   133cc:	9a02                	jalr	s4
   133ce:	01656b33          	or	s6,a0,s6
   133d2:	2b01                	sext.w	s6,s6
   133d4:	0b840413          	addi	s0,s0,184
   133d8:	fe8490e3          	bne	s1,s0,133b8 <_fwalk_reent+0x44>
   133dc:	00093903          	ld	s2,0(s2)
   133e0:	fa091ee3          	bnez	s2,1339c <_fwalk_reent+0x28>
   133e4:	60a6                	ld	ra,72(sp)
   133e6:	6406                	ld	s0,64(sp)
   133e8:	74e2                	ld	s1,56(sp)
   133ea:	7942                	ld	s2,48(sp)
   133ec:	79a2                	ld	s3,40(sp)
   133ee:	7a02                	ld	s4,32(sp)
   133f0:	6ae2                	ld	s5,24(sp)
   133f2:	6ba2                	ld	s7,8(sp)
   133f4:	6c02                	ld	s8,0(sp)
   133f6:	855a                	mv	a0,s6
   133f8:	6b42                	ld	s6,16(sp)
   133fa:	6161                	addi	sp,sp,80
   133fc:	8082                	ret

00000000000133fe <eshdn1>:
   133fe:	00450693          	addi	a3,a0,4
   13402:	4781                	li	a5,0
   13404:	0569                	addi	a0,a0,26
   13406:	7861                	lui	a6,0xffff8
   13408:	a811                	j	1341c <eshdn1+0x1e>
   1340a:	0017979b          	slliw	a5,a5,0x1
   1340e:	00e69023          	sh	a4,0(a3)
   13412:	17c2                	slli	a5,a5,0x30
   13414:	0689                	addi	a3,a3,2
   13416:	93c1                	srli	a5,a5,0x30
   13418:	02d50863          	beq	a0,a3,13448 <eshdn1+0x4a>
   1341c:	0006d703          	lhu	a4,0(a3)
   13420:	00177613          	andi	a2,a4,1
   13424:	c219                	beqz	a2,1342a <eshdn1+0x2c>
   13426:	0017e793          	ori	a5,a5,1
   1342a:	8305                	srli	a4,a4,0x1
   1342c:	0027f613          	andi	a2,a5,2
   13430:	010765b3          	or	a1,a4,a6
   13434:	da79                	beqz	a2,1340a <eshdn1+0xc>
   13436:	0017979b          	slliw	a5,a5,0x1
   1343a:	00b69023          	sh	a1,0(a3)
   1343e:	17c2                	slli	a5,a5,0x30
   13440:	0689                	addi	a3,a3,2
   13442:	93c1                	srli	a5,a5,0x30
   13444:	fcd51ce3          	bne	a0,a3,1341c <eshdn1+0x1e>
   13448:	8082                	ret

000000000001344a <eshup1>:
   1344a:	01850693          	addi	a3,a0,24
   1344e:	4701                	li	a4,0
   13450:	0509                	addi	a0,a0,2
   13452:	a811                	j	13466 <eshup1+0x1c>
   13454:	0017171b          	slliw	a4,a4,0x1
   13458:	00f69023          	sh	a5,0(a3)
   1345c:	1742                	slli	a4,a4,0x30
   1345e:	16f9                	addi	a3,a3,-2
   13460:	9341                	srli	a4,a4,0x30
   13462:	02d50b63          	beq	a0,a3,13498 <eshup1+0x4e>
   13466:	0006d783          	lhu	a5,0(a3)
   1346a:	00f7d613          	srli	a2,a5,0xf
   1346e:	0017979b          	slliw	a5,a5,0x1
   13472:	c219                	beqz	a2,13478 <eshup1+0x2e>
   13474:	00176713          	ori	a4,a4,1
   13478:	17c2                	slli	a5,a5,0x30
   1347a:	93c1                	srli	a5,a5,0x30
   1347c:	00277613          	andi	a2,a4,2
   13480:	0017e593          	ori	a1,a5,1
   13484:	da61                	beqz	a2,13454 <eshup1+0xa>
   13486:	0017171b          	slliw	a4,a4,0x1
   1348a:	00b69023          	sh	a1,0(a3)
   1348e:	1742                	slli	a4,a4,0x30
   13490:	16f9                	addi	a3,a3,-2
   13492:	9341                	srli	a4,a4,0x30
   13494:	fcd519e3          	bne	a0,a3,13466 <eshup1+0x1c>
   13498:	8082                	ret

000000000001349a <m16m>:
   1349a:	1101                	addi	sp,sp,-32
   1349c:	6e41                	lui	t3,0x10
   1349e:	00011b23          	sh	zero,22(sp)
   134a2:	00011c23          	sh	zero,24(sp)
   134a6:	05e1                	addi	a1,a1,24
   134a8:	083c                	addi	a5,sp,24
   134aa:	00410813          	addi	a6,sp,4
   134ae:	1e7d                	addi	t3,t3,-1
   134b0:	0005d703          	lhu	a4,0(a1)
   134b4:	17f9                	addi	a5,a5,-2
   134b6:	15f9                	addi	a1,a1,-2
   134b8:	e315                	bnez	a4,134dc <m16m+0x42>
   134ba:	fe079f23          	sh	zero,-2(a5)
   134be:	ff0799e3          	bne	a5,a6,134b0 <m16m+0x16>
   134c2:	0611                	addi	a2,a2,4
   134c4:	01a10693          	addi	a3,sp,26
   134c8:	0007d703          	lhu	a4,0(a5)
   134cc:	0789                	addi	a5,a5,2
   134ce:	0609                	addi	a2,a2,2
   134d0:	fee61f23          	sh	a4,-2(a2)
   134d4:	fed79ae3          	bne	a5,a3,134c8 <m16m+0x2e>
   134d8:	6105                	addi	sp,sp,32
   134da:	8082                	ret
   134dc:	02a70733          	mul	a4,a4,a0
   134e0:	0027d883          	lhu	a7,2(a5)
   134e4:	0007d303          	lhu	t1,0(a5)
   134e8:	01c776b3          	and	a3,a4,t3
   134ec:	96c6                	add	a3,a3,a7
   134ee:	8341                	srli	a4,a4,0x10
   134f0:	0106d893          	srli	a7,a3,0x10
   134f4:	971a                	add	a4,a4,t1
   134f6:	9746                	add	a4,a4,a7
   134f8:	01075893          	srli	a7,a4,0x10
   134fc:	00d79123          	sh	a3,2(a5)
   13500:	00e79023          	sh	a4,0(a5)
   13504:	ff179f23          	sh	a7,-2(a5)
   13508:	fb0794e3          	bne	a5,a6,134b0 <m16m+0x16>
   1350c:	bf5d                	j	134c2 <m16m+0x28>

000000000001350e <emovo.constprop.0>:
   1350e:	00055703          	lhu	a4,0(a0)
   13512:	00255783          	lhu	a5,2(a0)
   13516:	c319                	beqz	a4,1351c <emovo.constprop.0+0xe>
   13518:	6721                	lui	a4,0x8
   1351a:	8fd9                	or	a5,a5,a4
   1351c:	00f59923          	sh	a5,18(a1)
   13520:	00255703          	lhu	a4,2(a0)
   13524:	67a1                	lui	a5,0x8
   13526:	17fd                	addi	a5,a5,-1
   13528:	00f70f63          	beq	a4,a5,13546 <emovo.constprop.0+0x38>
   1352c:	00650793          	addi	a5,a0,6
   13530:	05c1                	addi	a1,a1,16
   13532:	0561                	addi	a0,a0,24
   13534:	0007d703          	lhu	a4,0(a5) # 8000 <main-0x80b0>
   13538:	0789                	addi	a5,a5,2
   1353a:	15f9                	addi	a1,a1,-2
   1353c:	00e59123          	sh	a4,2(a1)
   13540:	fea79ae3          	bne	a5,a0,13534 <emovo.constprop.0+0x26>
   13544:	8082                	ret
   13546:	00650793          	addi	a5,a0,6
   1354a:	0569                	addi	a0,a0,26
   1354c:	0007d703          	lhu	a4,0(a5)
   13550:	0789                	addi	a5,a5,2
   13552:	e31d                	bnez	a4,13578 <emovo.constprop.0+0x6a>
   13554:	fea79ce3          	bne	a5,a0,1354c <emovo.constprop.0+0x3e>
   13558:	01258713          	addi	a4,a1,18
   1355c:	87ae                	mv	a5,a1
   1355e:	0789                	addi	a5,a5,2
   13560:	fe079f23          	sh	zero,-2(a5)
   13564:	fef71de3          	bne	a4,a5,1355e <emovo.constprop.0+0x50>
   13568:	0125d783          	lhu	a5,18(a1)
   1356c:	6721                	lui	a4,0x8
   1356e:	177d                	addi	a4,a4,-1
   13570:	8fd9                	or	a5,a5,a4
   13572:	00f59923          	sh	a5,18(a1)
   13576:	8082                	ret
   13578:	01058713          	addi	a4,a1,16
   1357c:	87ae                	mv	a5,a1
   1357e:	0789                	addi	a5,a5,2
   13580:	fe079f23          	sh	zero,-2(a5)
   13584:	fef71de3          	bne	a4,a5,1357e <emovo.constprop.0+0x70>
   13588:	77f1                	lui	a5,0xffffc
   1358a:	00f59823          	sh	a5,16(a1)
   1358e:	77e1                	lui	a5,0xffff8
   13590:	fff7c793          	not	a5,a5
   13594:	00f59923          	sh	a5,18(a1)
   13598:	8082                	ret

000000000001359a <enormlz>:
   1359a:	00455783          	lhu	a5,4(a0)
   1359e:	1101                	addi	sp,sp,-32
   135a0:	e426                	sd	s1,8(sp)
   135a2:	ec06                	sd	ra,24(sp)
   135a4:	e822                	sd	s0,16(sp)
   135a6:	e04a                	sd	s2,0(sp)
   135a8:	84aa                	mv	s1,a0
   135aa:	efc9                	bnez	a5,13644 <enormlz+0xaa>
   135ac:	00655703          	lhu	a4,6(a0)
   135b0:	4401                	li	s0,0
   135b2:	00f75793          	srli	a5,a4,0xf
   135b6:	e3c1                	bnez	a5,13636 <enormlz+0x9c>
   135b8:	01a50693          	addi	a3,a0,26
   135bc:	0a000613          	li	a2,160
   135c0:	e31d                	bnez	a4,135e6 <enormlz+0x4c>
   135c2:	00648793          	addi	a5,s1,6
   135c6:	a019                	j	135cc <enormlz+0x32>
   135c8:	0007d703          	lhu	a4,0(a5) # ffffffffffff8000 <__BSS_END__+0xfffffffffffd80e8>
   135cc:	0789                	addi	a5,a5,2
   135ce:	fee79e23          	sh	a4,-4(a5)
   135d2:	fed79be3          	bne	a5,a3,135c8 <enormlz+0x2e>
   135d6:	00049c23          	sh	zero,24(s1)
   135da:	2441                	addiw	s0,s0,16
   135dc:	04c40d63          	beq	s0,a2,13636 <enormlz+0x9c>
   135e0:	0064d703          	lhu	a4,6(s1)
   135e4:	df79                	beqz	a4,135c2 <enormlz+0x28>
   135e6:	f0077793          	andi	a5,a4,-256
   135ea:	eb8d                	bnez	a5,1361c <enormlz+0x82>
   135ec:	01848513          	addi	a0,s1,24
   135f0:	00248593          	addi	a1,s1,2
   135f4:	4781                	li	a5,0
   135f6:	872a                	mv	a4,a0
   135f8:	00075683          	lhu	a3,0(a4) # 8000 <main-0x80b0>
   135fc:	1779                	addi	a4,a4,-2
   135fe:	0086961b          	slliw	a2,a3,0x8
   13602:	8fd1                	or	a5,a5,a2
   13604:	00f71123          	sh	a5,2(a4)
   13608:	0086d793          	srli	a5,a3,0x8
   1360c:	fee596e3          	bne	a1,a4,135f8 <enormlz+0x5e>
   13610:	0064d703          	lhu	a4,6(s1)
   13614:	2421                	addiw	s0,s0,8
   13616:	f0077793          	andi	a5,a4,-256
   1361a:	dfe9                	beqz	a5,135f4 <enormlz+0x5a>
   1361c:	0a000913          	li	s2,160
   13620:	a801                	j	13630 <enormlz+0x96>
   13622:	2405                	addiw	s0,s0,1
   13624:	e27ff0ef          	jal	ra,1344a <eshup1>
   13628:	00894763          	blt	s2,s0,13636 <enormlz+0x9c>
   1362c:	0064d703          	lhu	a4,6(s1)
   13630:	833d                	srli	a4,a4,0xf
   13632:	8526                	mv	a0,s1
   13634:	d77d                	beqz	a4,13622 <enormlz+0x88>
   13636:	60e2                	ld	ra,24(sp)
   13638:	8522                	mv	a0,s0
   1363a:	6442                	ld	s0,16(sp)
   1363c:	64a2                	ld	s1,8(sp)
   1363e:	6902                	ld	s2,0(sp)
   13640:	6105                	addi	sp,sp,32
   13642:	8082                	ret
   13644:	f007f713          	andi	a4,a5,-256
   13648:	4401                	li	s0,0
   1364a:	e705                	bnez	a4,13672 <enormlz+0xd8>
   1364c:	f6f00913          	li	s2,-145
   13650:	a801                	j	13660 <enormlz+0xc6>
   13652:	347d                	addiw	s0,s0,-1
   13654:	dabff0ef          	jal	ra,133fe <eshdn1>
   13658:	fd240fe3          	beq	s0,s2,13636 <enormlz+0x9c>
   1365c:	0044d783          	lhu	a5,4(s1)
   13660:	8526                	mv	a0,s1
   13662:	fbe5                	bnez	a5,13652 <enormlz+0xb8>
   13664:	60e2                	ld	ra,24(sp)
   13666:	8522                	mv	a0,s0
   13668:	6442                	ld	s0,16(sp)
   1366a:	64a2                	ld	s1,8(sp)
   1366c:	6902                	ld	s2,0(sp)
   1366e:	6105                	addi	sp,sp,32
   13670:	8082                	ret
   13672:	00450693          	addi	a3,a0,4
   13676:	01a50593          	addi	a1,a0,26
   1367a:	4701                	li	a4,0
   1367c:	a019                	j	13682 <enormlz+0xe8>
   1367e:	0006d783          	lhu	a5,0(a3)
   13682:	0087d61b          	srliw	a2,a5,0x8
   13686:	8f51                	or	a4,a4,a2
   13688:	0087979b          	slliw	a5,a5,0x8
   1368c:	00e69023          	sh	a4,0(a3)
   13690:	03079713          	slli	a4,a5,0x30
   13694:	0689                	addi	a3,a3,2
   13696:	9341                	srli	a4,a4,0x30
   13698:	fed593e3          	bne	a1,a3,1367e <enormlz+0xe4>
   1369c:	0044d783          	lhu	a5,4(s1)
   136a0:	5461                	li	s0,-8
   136a2:	b76d                	j	1364c <enormlz+0xb2>

00000000000136a4 <eshift.part.0>:
   136a4:	7179                	addi	sp,sp,-48
   136a6:	f022                	sd	s0,32(sp)
   136a8:	ec26                	sd	s1,24(sp)
   136aa:	f406                	sd	ra,40(sp)
   136ac:	e84a                	sd	s2,16(sp)
   136ae:	e44e                	sd	s3,8(sp)
   136b0:	84ae                	mv	s1,a1
   136b2:	842a                	mv	s0,a0
   136b4:	0605cb63          	bltz	a1,1372a <eshift.part.0+0x86>
   136b8:	47bd                	li	a5,15
   136ba:	862e                	mv	a2,a1
   136bc:	0511                	addi	a0,a0,4
   136be:	01840693          	addi	a3,s0,24
   136c2:	45bd                	li	a1,15
   136c4:	0297d063          	bge	a5,s1,136e4 <eshift.part.0+0x40>
   136c8:	87aa                	mv	a5,a0
   136ca:	0027d703          	lhu	a4,2(a5)
   136ce:	0789                	addi	a5,a5,2
   136d0:	fee79f23          	sh	a4,-2(a5)
   136d4:	fef69be3          	bne	a3,a5,136ca <eshift.part.0+0x26>
   136d8:	00041c23          	sh	zero,24(s0)
   136dc:	3641                	addiw	a2,a2,-16
   136de:	fec5c5e3          	blt	a1,a2,136c8 <eshift.part.0+0x24>
   136e2:	88bd                	andi	s1,s1,15
   136e4:	479d                	li	a5,7
   136e6:	0297d463          	bge	a5,s1,1370e <eshift.part.0+0x6a>
   136ea:	01840713          	addi	a4,s0,24
   136ee:	00240593          	addi	a1,s0,2
   136f2:	4781                	li	a5,0
   136f4:	00075683          	lhu	a3,0(a4)
   136f8:	1779                	addi	a4,a4,-2
   136fa:	0086961b          	slliw	a2,a3,0x8
   136fe:	8fd1                	or	a5,a5,a2
   13700:	00f71123          	sh	a5,2(a4)
   13704:	0086d793          	srli	a5,a3,0x8
   13708:	fee596e3          	bne	a1,a4,136f4 <eshift.part.0+0x50>
   1370c:	34e1                	addiw	s1,s1,-8
   1370e:	c491                	beqz	s1,1371a <eshift.part.0+0x76>
   13710:	34fd                	addiw	s1,s1,-1
   13712:	8522                	mv	a0,s0
   13714:	d37ff0ef          	jal	ra,1344a <eshup1>
   13718:	fce5                	bnez	s1,13710 <eshift.part.0+0x6c>
   1371a:	4501                	li	a0,0
   1371c:	70a2                	ld	ra,40(sp)
   1371e:	7402                	ld	s0,32(sp)
   13720:	64e2                	ld	s1,24(sp)
   13722:	6942                	ld	s2,16(sp)
   13724:	69a2                	ld	s3,8(sp)
   13726:	6145                	addi	sp,sp,48
   13728:	8082                	ret
   1372a:	57c5                	li	a5,-15
   1372c:	40b0093b          	negw	s2,a1
   13730:	0ef5d763          	bge	a1,a5,1381e <eshift.part.0+0x17a>
   13734:	01850593          	addi	a1,a0,24
   13738:	4981                	li	s3,0
   1373a:	00450693          	addi	a3,a0,4
   1373e:	463d                	li	a2,15
   13740:	01845703          	lhu	a4,24(s0)
   13744:	87ae                	mv	a5,a1
   13746:	00e9e9b3          	or	s3,s3,a4
   1374a:	ffe7d703          	lhu	a4,-2(a5)
   1374e:	17f9                	addi	a5,a5,-2
   13750:	00e79123          	sh	a4,2(a5)
   13754:	fed79be3          	bne	a5,a3,1374a <eshift.part.0+0xa6>
   13758:	00041223          	sh	zero,4(s0)
   1375c:	3941                	addiw	s2,s2,-16
   1375e:	ff2641e3          	blt	a2,s2,13740 <eshift.part.0+0x9c>
   13762:	5941                	li	s2,-16
   13764:	5745                	li	a4,-15
   13766:	4099093b          	subw	s2,s2,s1
   1376a:	4781                	li	a5,0
   1376c:	08e4c263          	blt	s1,a4,137f0 <eshift.part.0+0x14c>
   13770:	00f9093b          	addw	s2,s2,a5
   13774:	479d                	li	a5,7
   13776:	0327ce63          	blt	a5,s2,137b2 <eshift.part.0+0x10e>
   1377a:	08090a63          	beqz	s2,1380e <eshift.part.0+0x16a>
   1377e:	01845783          	lhu	a5,24(s0)
   13782:	397d                	addiw	s2,s2,-1
   13784:	8522                	mv	a0,s0
   13786:	8b85                	andi	a5,a5,1
   13788:	0137e9b3          	or	s3,a5,s3
   1378c:	c73ff0ef          	jal	ra,133fe <eshdn1>
   13790:	fe0917e3          	bnez	s2,1377e <eshift.part.0+0xda>
   13794:	0109979b          	slliw	a5,s3,0x10
   13798:	4107d79b          	sraiw	a5,a5,0x10
   1379c:	e7a5                	bnez	a5,13804 <eshift.part.0+0x160>
   1379e:	03099513          	slli	a0,s3,0x30
   137a2:	9141                	srli	a0,a0,0x30
   137a4:	70a2                	ld	ra,40(sp)
   137a6:	7402                	ld	s0,32(sp)
   137a8:	64e2                	ld	s1,24(sp)
   137aa:	6942                	ld	s2,16(sp)
   137ac:	69a2                	ld	s3,8(sp)
   137ae:	6145                	addi	sp,sp,48
   137b0:	8082                	ret
   137b2:	0109999b          	slliw	s3,s3,0x10
   137b6:	4109d99b          	sraiw	s3,s3,0x10
   137ba:	01844783          	lbu	a5,24(s0)
   137be:	01a40593          	addi	a1,s0,26
   137c2:	00f9e9b3          	or	s3,s3,a5
   137c6:	19c2                	slli	s3,s3,0x30
   137c8:	0309d993          	srli	s3,s3,0x30
   137cc:	4781                	li	a5,0
   137ce:	0006d703          	lhu	a4,0(a3)
   137d2:	0689                	addi	a3,a3,2
   137d4:	0087561b          	srliw	a2,a4,0x8
   137d8:	8fd1                	or	a5,a5,a2
   137da:	0087171b          	slliw	a4,a4,0x8
   137de:	fef69f23          	sh	a5,-2(a3)
   137e2:	03071793          	slli	a5,a4,0x30
   137e6:	93c1                	srli	a5,a5,0x30
   137e8:	fed593e3          	bne	a1,a3,137ce <eshift.part.0+0x12a>
   137ec:	3961                	addiw	s2,s2,-8
   137ee:	b771                	j	1377a <eshift.part.0+0xd6>
   137f0:	ff097793          	andi	a5,s2,-16
   137f4:	40f007bb          	negw	a5,a5
   137f8:	00f9093b          	addw	s2,s2,a5
   137fc:	479d                	li	a5,7
   137fe:	f727dee3          	bge	a5,s2,1377a <eshift.part.0+0xd6>
   13802:	bf45                	j	137b2 <eshift.part.0+0x10e>
   13804:	4985                	li	s3,1
   13806:	03099513          	slli	a0,s3,0x30
   1380a:	9141                	srli	a0,a0,0x30
   1380c:	bf61                	j	137a4 <eshift.part.0+0x100>
   1380e:	854e                	mv	a0,s3
   13810:	00099563          	bnez	s3,1381a <eshift.part.0+0x176>
   13814:	1542                	slli	a0,a0,0x30
   13816:	9141                	srli	a0,a0,0x30
   13818:	b711                	j	1371c <eshift.part.0+0x78>
   1381a:	4505                	li	a0,1
   1381c:	bfe5                	j	13814 <eshift.part.0+0x170>
   1381e:	57e5                	li	a5,-7
   13820:	4981                	li	s3,0
   13822:	00450693          	addi	a3,a0,4
   13826:	f8f5cae3          	blt	a1,a5,137ba <eshift.part.0+0x116>
   1382a:	bf91                	j	1377e <eshift.part.0+0xda>

000000000001382c <emovi>:
   1382c:	01255783          	lhu	a5,18(a0)
   13830:	6621                	lui	a2,0x8
   13832:	167d                	addi	a2,a2,-1
   13834:	00f7d79b          	srliw	a5,a5,0xf
   13838:	40f007bb          	negw	a5,a5
   1383c:	00f59023          	sh	a5,0(a1)
   13840:	01255683          	lhu	a3,18(a0)
   13844:	01050793          	addi	a5,a0,16
   13848:	00458713          	addi	a4,a1,4
   1384c:	8ef1                	and	a3,a3,a2
   1384e:	00d59123          	sh	a3,2(a1)
   13852:	0006881b          	sext.w	a6,a3
   13856:	02c68263          	beq	a3,a2,1387a <emovi+0x4e>
   1385a:	00658713          	addi	a4,a1,6
   1385e:	00059223          	sh	zero,4(a1)
   13862:	1579                	addi	a0,a0,-2
   13864:	0007d683          	lhu	a3,0(a5)
   13868:	17f9                	addi	a5,a5,-2
   1386a:	0709                	addi	a4,a4,2
   1386c:	fed71f23          	sh	a3,-2(a4)
   13870:	fef51ae3          	bne	a0,a5,13864 <emovi+0x38>
   13874:	00059c23          	sh	zero,24(a1)
   13878:	8082                	ret
   1387a:	01255683          	lhu	a3,18(a0)
   1387e:	00d876b3          	and	a3,a6,a3
   13882:	01069b63          	bne	a3,a6,13898 <emovi+0x6c>
   13886:	01250813          	addi	a6,a0,18
   1388a:	86aa                	mv	a3,a0
   1388c:	0006d603          	lhu	a2,0(a3)
   13890:	0689                	addi	a3,a3,2
   13892:	ea11                	bnez	a2,138a6 <emovi+0x7a>
   13894:	ff069ce3          	bne	a3,a6,1388c <emovi+0x60>
   13898:	05e9                	addi	a1,a1,26
   1389a:	0709                	addi	a4,a4,2
   1389c:	fe071f23          	sh	zero,-2(a4)
   138a0:	fee59de3          	bne	a1,a4,1389a <emovi+0x6e>
   138a4:	8082                	ret
   138a6:	00658713          	addi	a4,a1,6
   138aa:	00059223          	sh	zero,4(a1)
   138ae:	1571                	addi	a0,a0,-4
   138b0:	0007d683          	lhu	a3,0(a5)
   138b4:	17f9                	addi	a5,a5,-2
   138b6:	0709                	addi	a4,a4,2
   138b8:	fed71f23          	sh	a3,-2(a4)
   138bc:	fea79ae3          	bne	a5,a0,138b0 <emovi+0x84>
   138c0:	8082                	ret

00000000000138c2 <ecmp>:
   138c2:	01255783          	lhu	a5,18(a0)
   138c6:	715d                	addi	sp,sp,-80
   138c8:	e0a2                	sd	s0,64(sp)
   138ca:	fff7c793          	not	a5,a5
   138ce:	e486                	sd	ra,72(sp)
   138d0:	03179713          	slli	a4,a5,0x31
   138d4:	842e                	mv	s0,a1
   138d6:	eb11                	bnez	a4,138ea <ecmp+0x28>
   138d8:	01250693          	addi	a3,a0,18
   138dc:	87aa                	mv	a5,a0
   138de:	0007d703          	lhu	a4,0(a5)
   138e2:	0789                	addi	a5,a5,2
   138e4:	eb25                	bnez	a4,13954 <ecmp+0x92>
   138e6:	fed79ce3          	bne	a5,a3,138de <ecmp+0x1c>
   138ea:	01245783          	lhu	a5,18(s0)
   138ee:	fff7c793          	not	a5,a5
   138f2:	03179713          	slli	a4,a5,0x31
   138f6:	c331                	beqz	a4,1393a <ecmp+0x78>
   138f8:	858a                	mv	a1,sp
   138fa:	f33ff0ef          	jal	ra,1382c <emovi>
   138fe:	100c                	addi	a1,sp,32
   13900:	8522                	mv	a0,s0
   13902:	f2bff0ef          	jal	ra,1382c <emovi>
   13906:	00015583          	lhu	a1,0(sp)
   1390a:	02015783          	lhu	a5,32(sp)
   1390e:	04b78863          	beq	a5,a1,1395e <ecmp+0x9c>
   13912:	00210793          	addi	a5,sp,2
   13916:	02210713          	addi	a4,sp,34
   1391a:	0830                	addi	a2,sp,24
   1391c:	0007d683          	lhu	a3,0(a5)
   13920:	0789                	addi	a5,a5,2
   13922:	eea5                	bnez	a3,1399a <ecmp+0xd8>
   13924:	00075683          	lhu	a3,0(a4)
   13928:	0709                	addi	a4,a4,2
   1392a:	eaa5                	bnez	a3,1399a <ecmp+0xd8>
   1392c:	fef618e3          	bne	a2,a5,1391c <ecmp+0x5a>
   13930:	4501                	li	a0,0
   13932:	60a6                	ld	ra,72(sp)
   13934:	6406                	ld	s0,64(sp)
   13936:	6161                	addi	sp,sp,80
   13938:	8082                	ret
   1393a:	87a2                	mv	a5,s0
   1393c:	0007d703          	lhu	a4,0(a5)
   13940:	01240693          	addi	a3,s0,18
   13944:	0789                	addi	a5,a5,2
   13946:	e719                	bnez	a4,13954 <ecmp+0x92>
   13948:	fad788e3          	beq	a5,a3,138f8 <ecmp+0x36>
   1394c:	0007d703          	lhu	a4,0(a5)
   13950:	0789                	addi	a5,a5,2
   13952:	db7d                	beqz	a4,13948 <ecmp+0x86>
   13954:	60a6                	ld	ra,72(sp)
   13956:	6406                	ld	s0,64(sp)
   13958:	5579                	li	a0,-2
   1395a:	6161                	addi	sp,sp,80
   1395c:	8082                	ret
   1395e:	4505                	li	a0,1
   13960:	e1a9                	bnez	a1,139a2 <ecmp+0xe0>
   13962:	00215603          	lhu	a2,2(sp)
   13966:	02215683          	lhu	a3,34(sp)
   1396a:	00210713          	addi	a4,sp,2
   1396e:	02210793          	addi	a5,sp,34
   13972:	182c                	addi	a1,sp,56
   13974:	0789                	addi	a5,a5,2
   13976:	0709                	addi	a4,a4,2
   13978:	00d61c63          	bne	a2,a3,13990 <ecmp+0xce>
   1397c:	fab78ae3          	beq	a5,a1,13930 <ecmp+0x6e>
   13980:	00075603          	lhu	a2,0(a4)
   13984:	0007d683          	lhu	a3,0(a5)
   13988:	0709                	addi	a4,a4,2
   1398a:	0789                	addi	a5,a5,2
   1398c:	fed608e3          	beq	a2,a3,1397c <ecmp+0xba>
   13990:	fac6e1e3          	bltu	a3,a2,13932 <ecmp+0x70>
   13994:	40a0053b          	negw	a0,a0
   13998:	bf69                	j	13932 <ecmp+0x70>
   1399a:	4505                	li	a0,1
   1399c:	d9d9                	beqz	a1,13932 <ecmp+0x70>
   1399e:	557d                	li	a0,-1
   139a0:	bf49                	j	13932 <ecmp+0x70>
   139a2:	557d                	li	a0,-1
   139a4:	bf7d                	j	13962 <ecmp+0xa0>

00000000000139a6 <emdnorm>:
   139a6:	7139                	addi	sp,sp,-64
   139a8:	f822                	sd	s0,48(sp)
   139aa:	f426                	sd	s1,40(sp)
   139ac:	f04a                	sd	s2,32(sp)
   139ae:	ec4e                	sd	s3,24(sp)
   139b0:	e852                	sd	s4,16(sp)
   139b2:	e456                	sd	s5,8(sp)
   139b4:	8936                	mv	s2,a3
   139b6:	84be                	mv	s1,a5
   139b8:	fc06                	sd	ra,56(sp)
   139ba:	842a                	mv	s0,a0
   139bc:	89ae                	mv	s3,a1
   139be:	8a32                	mv	s4,a2
   139c0:	8aba                	mv	s5,a4
   139c2:	bd9ff0ef          	jal	ra,1359a <enormlz>
   139c6:	09000793          	li	a5,144
   139ca:	40a90933          	sub	s2,s2,a0
   139ce:	14a7d563          	bge	a5,a0,13b18 <emdnorm+0x172>
   139d2:	67a1                	lui	a5,0x8
   139d4:	17f9                	addi	a5,a5,-2
   139d6:	1b27d663          	bge	a5,s2,13b82 <emdnorm+0x1dc>
   139da:	180a8463          	beqz	s5,13b62 <emdnorm+0x1bc>
   139de:	40c8                	lw	a0,4(s1)
   139e0:	409c                	lw	a5,0(s1)
   139e2:	04a78d63          	beq	a5,a0,13a3c <emdnorm+0x96>
   139e6:	01a48713          	addi	a4,s1,26
   139ea:	03448793          	addi	a5,s1,52
   139ee:	0709                	addi	a4,a4,2
   139f0:	fe071f23          	sh	zero,-2(a4)
   139f4:	fef71de3          	bne	a4,a5,139ee <emdnorm+0x48>
   139f8:	03800793          	li	a5,56
   139fc:	28f50b63          	beq	a0,a5,13c92 <emdnorm+0x2ec>
   13a00:	12a7db63          	bge	a5,a0,13b36 <emdnorm+0x190>
   13a04:	04000793          	li	a5,64
   13a08:	24f50b63          	beq	a0,a5,13c5e <emdnorm+0x2b8>
   13a0c:	07100793          	li	a5,113
   13a10:	26f51463          	bne	a0,a5,13c78 <emdnorm+0x2d2>
   13a14:	400087b7          	lui	a5,0x40008
   13a18:	17fd                	addi	a5,a5,-1
   13a1a:	4729                	li	a4,10
   13a1c:	c8dc                	sw	a5,20(s1)
   13a1e:	77e1                	lui	a5,0xffff8
   13a20:	c498                	sw	a4,8(s1)
   13a22:	00f49c23          	sh	a5,24(s1)
   13a26:	c4d8                	sw	a4,12(s1)
   13a28:	47a9                	li	a5,10
   13a2a:	6721                	lui	a4,0x8
   13a2c:	07a1                	addi	a5,a5,8
   13a2e:	0786                	slli	a5,a5,0x1
   13a30:	97a6                	add	a5,a5,s1
   13a32:	00e79523          	sh	a4,10(a5) # ffffffffffff800a <__BSS_END__+0xfffffffffffd80f2>
   13a36:	c088                	sw	a0,0(s1)
   13a38:	17205b63          	blez	s2,13bae <emdnorm+0x208>
   13a3c:	4494                	lw	a3,8(s1)
   13a3e:	0144d603          	lhu	a2,20(s1)
   13a42:	08f00713          	li	a4,143
   13a46:	00169793          	slli	a5,a3,0x1
   13a4a:	00f40833          	add	a6,s0,a5
   13a4e:	00085883          	lhu	a7,0(a6) # ffffffffffff8000 <__BSS_END__+0xfffffffffffd80e8>
   13a52:	00c8f5b3          	and	a1,a7,a2
   13a56:	02a74e63          	blt	a4,a0,13a92 <emdnorm+0xec>
   13a5a:	472d                	li	a4,11
   13a5c:	02d74b63          	blt	a4,a3,13a92 <emdnorm+0xec>
   13a60:	9f15                	subw	a4,a4,a3
   13a62:	1702                	slli	a4,a4,0x20
   13a64:	9301                	srli	a4,a4,0x20
   13a66:	9736                	add	a4,a4,a3
   13a68:	00171693          	slli	a3,a4,0x1
   13a6c:	0789                	addi	a5,a5,2
   13a6e:	00440713          	addi	a4,s0,4
   13a72:	97a2                	add	a5,a5,s0
   13a74:	9736                	add	a4,a4,a3
   13a76:	0007d683          	lhu	a3,0(a5)
   13a7a:	c299                	beqz	a3,13a80 <emdnorm+0xda>
   13a7c:	0015e593          	ori	a1,a1,1
   13a80:	00079023          	sh	zero,0(a5)
   13a84:	0789                	addi	a5,a5,2
   13a86:	fef718e3          	bne	a4,a5,13a76 <emdnorm+0xd0>
   13a8a:	00085883          	lhu	a7,0(a6)
   13a8e:	0144d603          	lhu	a2,20(s1)
   13a92:	fff64613          	not	a2,a2
   13a96:	01167633          	and	a2,a2,a7
   13a9a:	00c81023          	sh	a2,0(a6)
   13a9e:	0164d783          	lhu	a5,22(s1)
   13aa2:	00b7f733          	and	a4,a5,a1
   13aa6:	c339                	beqz	a4,13aec <emdnorm+0x146>
   13aa8:	00b79d63          	bne	a5,a1,13ac2 <emdnorm+0x11c>
   13aac:	18099663          	bnez	s3,13c38 <emdnorm+0x292>
   13ab0:	44dc                	lw	a5,12(s1)
   13ab2:	0184d703          	lhu	a4,24(s1)
   13ab6:	0786                	slli	a5,a5,0x1
   13ab8:	97a2                	add	a5,a5,s0
   13aba:	0007d783          	lhu	a5,0(a5)
   13abe:	8ff9                	and	a5,a5,a4
   13ac0:	c795                	beqz	a5,13aec <emdnorm+0x146>
   13ac2:	03248613          	addi	a2,s1,50
   13ac6:	01840693          	addi	a3,s0,24
   13aca:	04f1                	addi	s1,s1,28
   13acc:	4701                	li	a4,0
   13ace:	00065783          	lhu	a5,0(a2) # 8000 <main-0x80b0>
   13ad2:	0006d583          	lhu	a1,0(a3)
   13ad6:	16f9                	addi	a3,a3,-2
   13ad8:	1679                	addi	a2,a2,-2
   13ada:	97ae                	add	a5,a5,a1
   13adc:	97ba                	add	a5,a5,a4
   13ade:	0107d713          	srli	a4,a5,0x10
   13ae2:	00f69123          	sh	a5,2(a3)
   13ae6:	8b05                	andi	a4,a4,1
   13ae8:	fe9613e3          	bne	a2,s1,13ace <emdnorm+0x128>
   13aec:	11205763          	blez	s2,13bfa <emdnorm+0x254>
   13af0:	00445783          	lhu	a5,4(s0)
   13af4:	e7e5                	bnez	a5,13bdc <emdnorm+0x236>
   13af6:	67a1                	lui	a5,0x8
   13af8:	00041c23          	sh	zero,24(s0)
   13afc:	17f9                	addi	a5,a5,-2
   13afe:	0727c463          	blt	a5,s2,13b66 <emdnorm+0x1c0>
   13b02:	01241123          	sh	s2,2(s0)
   13b06:	70e2                	ld	ra,56(sp)
   13b08:	7442                	ld	s0,48(sp)
   13b0a:	74a2                	ld	s1,40(sp)
   13b0c:	7902                	ld	s2,32(sp)
   13b0e:	69e2                	ld	s3,24(sp)
   13b10:	6a42                	ld	s4,16(sp)
   13b12:	6aa2                	ld	s5,8(sp)
   13b14:	6121                	addi	sp,sp,64
   13b16:	8082                	ret
   13b18:	0a095963          	bgez	s2,13bca <emdnorm+0x224>
   13b1c:	f7000793          	li	a5,-144
